
core0_main0.elf:     file format elf32-littleriscv
architecture: riscv:rv32, flags 0x00000112:
EXEC_P, HAS_SYMS, D_PAGED
start address 0x10000080

Sections:
Idx Name          Size      VMA       LMA       File off  Algn
  0 .vectors      00000084  10000000  10000000  00001000  2**0
                  CONTENTS, ALLOC, LOAD, READONLY, CODE
  1 .text         00000644  10000084  10000084  00001084  2**2
                  CONTENTS, ALLOC, LOAD, READONLY, CODE
  2 .rodata       00000054  100006c8  100006c8  000016c8  2**2
                  CONTENTS, ALLOC, LOAD, READONLY, DATA
  3 .data         00000000  1000071c  1000071c  0000171c  2**0
                  CONTENTS, ALLOC, LOAD, DATA
  4 .bss          00000020  10000720  10000720  0000171c  2**3
                  ALLOC
  5 .stack        00000800  10001000  10001000  00002000  2**0
                  ALLOC
  6 .debug_info   00001073  00000000  00000000  0000171c  2**0
                  CONTENTS, READONLY, DEBUGGING
  7 .debug_abbrev 00000555  00000000  00000000  0000278f  2**0
                  CONTENTS, READONLY, DEBUGGING
  8 .debug_loc    000001c9  00000000  00000000  00002ce4  2**0
                  CONTENTS, READONLY, DEBUGGING
  9 .debug_aranges 00000070  00000000  00000000  00002eb0  2**3
                  CONTENTS, READONLY, DEBUGGING
 10 .debug_ranges 000000a8  00000000  00000000  00002f20  2**3
                  CONTENTS, READONLY, DEBUGGING
 11 .debug_line   00000b1d  00000000  00000000  00002fc8  2**0
                  CONTENTS, READONLY, DEBUGGING
 12 .debug_str    0000075b  00000000  00000000  00003ae5  2**0
                  CONTENTS, READONLY, DEBUGGING
 13 .comment      0000002c  00000000  00000000  00004240  2**0
                  CONTENTS, READONLY
 14 .riscv.attributes 00000021  00000000  00000000  0000426c  2**0
                  CONTENTS, READONLY
 15 .debug_frame  00000268  00000000  00000000  00004290  2**2
                  CONTENTS, READONLY, DEBUGGING

Disassembly of section .vectors:

10000000 <_vectors_start>:

  // All unimplemented interrupts/exceptions go to the default_exc_handler.
  .org 0x00
  .rept 7
  jal x0, default_exc_handler
  .endr
10000000:	6980006f          	j	10000698 <default_exc_handler>
10000004:	6940006f          	j	10000698 <default_exc_handler>
10000008:	6900006f          	j	10000698 <default_exc_handler>
1000000c:	68c0006f          	j	10000698 <default_exc_handler>
10000010:	6880006f          	j	10000698 <default_exc_handler>
10000014:	6840006f          	j	10000698 <default_exc_handler>
10000018:	6800006f          	j	10000698 <default_exc_handler>
  jal x0, timer_handler
1000001c:	6800006f          	j	1000069c <timer_handler>

  jal x0, default_exc_handler //8
10000020:	6780006f          	j	10000698 <default_exc_handler>
  jal x0, default_exc_handler //9
10000024:	6740006f          	j	10000698 <default_exc_handler>
  jal x0, default_exc_handler //10
10000028:	6700006f          	j	10000698 <default_exc_handler>
  jal x0, default_exc_handler //11
1000002c:	66c0006f          	j	10000698 <default_exc_handler>
  jal x0, default_exc_handler //12
10000030:	6680006f          	j	10000698 <default_exc_handler>
  jal x0, default_exc_handler //13
10000034:	6640006f          	j	10000698 <default_exc_handler>
  jal x0, default_exc_handler //14
10000038:	6600006f          	j	10000698 <default_exc_handler>
  jal x0, default_exc_handler //15
1000003c:	65c0006f          	j	10000698 <default_exc_handler>
  jal x0, fast_irq0_handler //16
10000040:	6600006f          	j	100006a0 <fast_irq0_handler>
  jal x0, fast_irq1_handler //17
10000044:	6600006f          	j	100006a4 <fast_irq1_handler>

  .rept 31-17
  jal x0, default_exc_handler
  .endr
10000048:	6500006f          	j	10000698 <default_exc_handler>
1000004c:	64c0006f          	j	10000698 <default_exc_handler>
10000050:	6480006f          	j	10000698 <default_exc_handler>
10000054:	6440006f          	j	10000698 <default_exc_handler>
10000058:	6400006f          	j	10000698 <default_exc_handler>
1000005c:	63c0006f          	j	10000698 <default_exc_handler>
10000060:	6380006f          	j	10000698 <default_exc_handler>
10000064:	6340006f          	j	10000698 <default_exc_handler>
10000068:	6300006f          	j	10000698 <default_exc_handler>
1000006c:	62c0006f          	j	10000698 <default_exc_handler>
10000070:	6280006f          	j	10000698 <default_exc_handler>
10000074:	6240006f          	j	10000698 <default_exc_handler>
10000078:	6200006f          	j	10000698 <default_exc_handler>
1000007c:	61c0006f          	j	10000698 <default_exc_handler>

  // reset vector
  .org 0x80
  jal x0, reset_handler
10000080:	5500006f          	j	100005d0 <reset_handler>

Disassembly of section .text:

10000084 <putchar>:
// SPDX-License-Identifier: Apache-2.0

#include "simple_system_common.h"

int putchar(int c) {
  DEV_WRITE(SIM_CTRL_BASE + SIM_CTRL_OUT, (unsigned char)c);
10000084:	0ff57793          	andi	a5,a0,255
10000088:	00020737          	lui	a4,0x20
1000008c:	00f72023          	sw	a5,0(a4) # 20000 <_stack_len+0x1f000>

  return c;
}
10000090:	00008067          	ret

10000094 <puts>:
  DEV_WRITE(SIM_CTRL_BASE + SIM_CTRL_OUT, (unsigned char)c);
10000094:	00020737          	lui	a4,0x20

int puts(const char *str) {
  while (*str) {
10000098:	00054783          	lbu	a5,0(a0)
1000009c:	00079663          	bnez	a5,100000a8 <puts+0x14>
    putchar(*str++);
  }

  return 0;
}
100000a0:	00000513          	li	a0,0
100000a4:	00008067          	ret
    putchar(*str++);
100000a8:	00150513          	addi	a0,a0,1
  DEV_WRITE(SIM_CTRL_BASE + SIM_CTRL_OUT, (unsigned char)c);
100000ac:	00f72023          	sw	a5,0(a4) # 20000 <_stack_len+0x1f000>
  return c;
100000b0:	fe9ff06f          	j	10000098 <puts+0x4>

100000b4 <puthex>:

void puthex(uint32_t h) {
100000b4:	00800713          	li	a4,8
  // Iterate through h taking top 4 bits each time and outputting ASCII of hex
  // digit for those 4 bits
  for (int i = 0; i < 8; i++) {
    cur_digit = h >> 28;

    if (cur_digit < 10)
100000b8:	00900613          	li	a2,9
  DEV_WRITE(SIM_CTRL_BASE + SIM_CTRL_OUT, (unsigned char)c);
100000bc:	000206b7          	lui	a3,0x20
    cur_digit = h >> 28;
100000c0:	01c55793          	srli	a5,a0,0x1c
    if (cur_digit < 10)
100000c4:	00f66e63          	bltu	a2,a5,100000e0 <puthex+0x2c>
      putchar('0' + cur_digit);
100000c8:	03078793          	addi	a5,a5,48
  DEV_WRITE(SIM_CTRL_BASE + SIM_CTRL_OUT, (unsigned char)c);
100000cc:	00f6a023          	sw	a5,0(a3) # 20000 <_stack_len+0x1f000>
    else
      putchar('A' - 10 + cur_digit);

    h <<= 4;
100000d0:	fff70713          	addi	a4,a4,-1
100000d4:	00451513          	slli	a0,a0,0x4
  for (int i = 0; i < 8; i++) {
100000d8:	fe0714e3          	bnez	a4,100000c0 <puthex+0xc>
  }
}
100000dc:	00008067          	ret
      putchar('A' - 10 + cur_digit);
100000e0:	03778793          	addi	a5,a5,55
100000e4:	fe9ff06f          	j	100000cc <puthex+0x18>

100000e8 <sim_halt>:

void sim_halt() { DEV_WRITE(SIM_CTRL_BASE + SIM_CTRL_CTRL, 1); }
100000e8:	000207b7          	lui	a5,0x20
100000ec:	00100713          	li	a4,1
100000f0:	00e7a423          	sw	a4,8(a5) # 20008 <tohost>
100000f4:	00008067          	ret

100000f8 <pcount_reset>:

void pcount_reset() {
  asm volatile(
100000f8:	b0201073          	csrw	minstret,zero
100000fc:	b0001073          	csrw	mcycle,zero
10000100:	b0301073          	csrw	mhpmcounter3,zero
10000104:	b0401073          	csrw	mhpmcounter4,zero
10000108:	b0501073          	csrw	mhpmcounter5,zero
1000010c:	b0601073          	csrw	mhpmcounter6,zero
10000110:	b0701073          	csrw	mhpmcounter7,zero
10000114:	b0801073          	csrw	mhpmcounter8,zero
10000118:	b0901073          	csrw	mhpmcounter9,zero
1000011c:	b0a01073          	csrw	mhpmcounter10,zero
10000120:	b0b01073          	csrw	mhpmcounter11,zero
10000124:	b0c01073          	csrw	mhpmcounter12,zero
10000128:	b0d01073          	csrw	mhpmcounter13,zero
1000012c:	b0e01073          	csrw	mhpmcounter14,zero
10000130:	b0f01073          	csrw	mhpmcounter15,zero
10000134:	b1001073          	csrw	mhpmcounter16,zero
10000138:	b1101073          	csrw	mhpmcounter17,zero
1000013c:	b1201073          	csrw	mhpmcounter18,zero
10000140:	b1301073          	csrw	mhpmcounter19,zero
10000144:	b1401073          	csrw	mhpmcounter20,zero
10000148:	b1501073          	csrw	mhpmcounter21,zero
1000014c:	b1601073          	csrw	mhpmcounter22,zero
10000150:	b1701073          	csrw	mhpmcounter23,zero
10000154:	b1801073          	csrw	mhpmcounter24,zero
10000158:	b1901073          	csrw	mhpmcounter25,zero
1000015c:	b1a01073          	csrw	mhpmcounter26,zero
10000160:	b1b01073          	csrw	mhpmcounter27,zero
10000164:	b1c01073          	csrw	mhpmcounter28,zero
10000168:	b1d01073          	csrw	mhpmcounter29,zero
1000016c:	b1e01073          	csrw	mhpmcounter30,zero
10000170:	b1f01073          	csrw	mhpmcounter31,zero
10000174:	b8201073          	csrw	minstreth,zero
10000178:	b8001073          	csrw	mcycleh,zero
1000017c:	b8301073          	csrw	mhpmcounter3h,zero
10000180:	b8401073          	csrw	mhpmcounter4h,zero
10000184:	b8501073          	csrw	mhpmcounter5h,zero
10000188:	b8601073          	csrw	mhpmcounter6h,zero
1000018c:	b8701073          	csrw	mhpmcounter7h,zero
10000190:	b8801073          	csrw	mhpmcounter8h,zero
10000194:	b8901073          	csrw	mhpmcounter9h,zero
10000198:	b8a01073          	csrw	mhpmcounter10h,zero
1000019c:	b8b01073          	csrw	mhpmcounter11h,zero
100001a0:	b8c01073          	csrw	mhpmcounter12h,zero
100001a4:	b8d01073          	csrw	mhpmcounter13h,zero
100001a8:	b8e01073          	csrw	mhpmcounter14h,zero
100001ac:	b8f01073          	csrw	mhpmcounter15h,zero
100001b0:	b9001073          	csrw	mhpmcounter16h,zero
100001b4:	b9101073          	csrw	mhpmcounter17h,zero
100001b8:	b9201073          	csrw	mhpmcounter18h,zero
100001bc:	b9301073          	csrw	mhpmcounter19h,zero
100001c0:	b9401073          	csrw	mhpmcounter20h,zero
100001c4:	b9501073          	csrw	mhpmcounter21h,zero
100001c8:	b9601073          	csrw	mhpmcounter22h,zero
100001cc:	b9701073          	csrw	mhpmcounter23h,zero
100001d0:	b9801073          	csrw	mhpmcounter24h,zero
100001d4:	b9901073          	csrw	mhpmcounter25h,zero
100001d8:	b9a01073          	csrw	mhpmcounter26h,zero
100001dc:	b9b01073          	csrw	mhpmcounter27h,zero
100001e0:	b9c01073          	csrw	mhpmcounter28h,zero
100001e4:	b9d01073          	csrw	mhpmcounter29h,zero
100001e8:	b9e01073          	csrw	mhpmcounter30h,zero
100001ec:	b9f01073          	csrw	mhpmcounter31h,zero
      "csrw mhpmcounter27h, x0\n"
      "csrw mhpmcounter28h, x0\n"
      "csrw mhpmcounter29h, x0\n"
      "csrw mhpmcounter30h, x0\n"
      "csrw mhpmcounter31h, x0\n");
}
100001f0:	00008067          	ret

100001f4 <pcount_enable>:

void pcount_enable(int enable) {
  // Note cycle is disabled with everything else
  unsigned int inhibit_val = enable ? 0x0 : 0xFFFFFFFF;
100001f4:	00153513          	seqz	a0,a0
100001f8:	40a00533          	neg	a0,a0
  // mucounteren == mcountinhibit but binutils doesn't seem to known the
  // mcountinhibit name
  asm volatile("csrw  mucounteren, %0\n" : : "r"(inhibit_val));
100001fc:	32051073          	csrw	mucounteren,a0
}
10000200:	00008067          	ret

10000204 <get_mepc>:

unsigned int get_mepc() {
  uint32_t result;
  __asm__ volatile("csrr %0, mepc;" : "=r"(result));
10000204:	34102573          	csrr	a0,mepc
  return result;
}
10000208:	00008067          	ret

1000020c <get_mcause>:

unsigned int get_mcause() {
  uint32_t result;
  __asm__ volatile("csrr %0, mcause;" : "=r"(result));
1000020c:	34202573          	csrr	a0,mcause
  return result;
}
10000210:	00008067          	ret

10000214 <get_mtval>:

unsigned int get_mtval() {
  uint32_t result;
  __asm__ volatile("csrr %0, mtval;" : "=r"(result));
10000214:	34302573          	csrr	a0,mtval
  return result;
}
10000218:	00008067          	ret

1000021c <simple_exc_handler>:

void simple_exc_handler(void) {
1000021c:	ff010113          	addi	sp,sp,-16
  puts("EXCEPTION!!!\n");
10000220:	00000517          	auipc	a0,0x0
10000224:	4a850513          	addi	a0,a0,1192 # 100006c8 <main+0x20>
void simple_exc_handler(void) {
10000228:	00112623          	sw	ra,12(sp)
  puts("EXCEPTION!!!\n");
1000022c:	e69ff0ef          	jal	ra,10000094 <puts>
  puts("============\n");
10000230:	00000517          	auipc	a0,0x0
10000234:	4a850513          	addi	a0,a0,1192 # 100006d8 <main+0x30>
10000238:	e5dff0ef          	jal	ra,10000094 <puts>
  puts("MEPC:   0x");
1000023c:	00000517          	auipc	a0,0x0
10000240:	4ac50513          	addi	a0,a0,1196 # 100006e8 <main+0x40>
10000244:	e51ff0ef          	jal	ra,10000094 <puts>
  __asm__ volatile("csrr %0, mepc;" : "=r"(result));
10000248:	34102573          	csrr	a0,mepc
  puthex(get_mepc());
1000024c:	e69ff0ef          	jal	ra,100000b4 <puthex>
  puts("\nMCAUSE: 0x");
10000250:	00000517          	auipc	a0,0x0
10000254:	4a450513          	addi	a0,a0,1188 # 100006f4 <main+0x4c>
10000258:	e3dff0ef          	jal	ra,10000094 <puts>
  __asm__ volatile("csrr %0, mcause;" : "=r"(result));
1000025c:	34202573          	csrr	a0,mcause
  puthex(get_mcause());
10000260:	e55ff0ef          	jal	ra,100000b4 <puthex>
  puts("\nMTVAL:  0x");
10000264:	00000517          	auipc	a0,0x0
10000268:	49c50513          	addi	a0,a0,1180 # 10000700 <main+0x58>
1000026c:	e29ff0ef          	jal	ra,10000094 <puts>
  __asm__ volatile("csrr %0, mtval;" : "=r"(result));
10000270:	34302573          	csrr	a0,mtval
  puthex(get_mtval());
10000274:	e41ff0ef          	jal	ra,100000b4 <puthex>
  DEV_WRITE(SIM_CTRL_BASE + SIM_CTRL_OUT, (unsigned char)c);
10000278:	000207b7          	lui	a5,0x20
1000027c:	00a00713          	li	a4,10
10000280:	00e7a023          	sw	a4,0(a5) # 20000 <_stack_len+0x1f000>
void sim_halt() { DEV_WRITE(SIM_CTRL_BASE + SIM_CTRL_CTRL, 1); }
10000284:	00100713          	li	a4,1
10000288:	00e7a423          	sw	a4,8(a5)
  putchar('\n');
  sim_halt();

  while(1);
1000028c:	0000006f          	j	1000028c <simple_exc_handler+0x70>

10000290 <timer_disable>:
  asm volatile("csrs  mie, %0\n" : : "r"(0x80));
  // enable global interrupt
  asm volatile("csrs  mstatus, %0\n" : : "r"(0x8));
}

void timer_disable(void) { asm volatile("csrc  mie, %0\n" : : "r"(0x80)); }
10000290:	08000793          	li	a5,128
10000294:	3047b073          	csrc	mie,a5
10000298:	00008067          	ret

1000029c <timer_read>:
uint64_t timer_read(void) {
  uint32_t current_timeh;
  uint32_t current_time;
  // check if time overflowed while reading and try again
  do {
    current_timeh = DEV_READ(TIMER_BASE + TIMER_MTIMEH, 0);
1000029c:	000307b7          	lui	a5,0x30
100002a0:	0047a703          	lw	a4,4(a5) # 30004 <tohost+0xfffc>
    current_time = DEV_READ(TIMER_BASE + TIMER_MTIME, 0);
100002a4:	0007a503          	lw	a0,0(a5)
  } while (current_timeh != DEV_READ(TIMER_BASE + TIMER_MTIMEH, 0));
100002a8:	0047a583          	lw	a1,4(a5)
100002ac:	fee59ae3          	bne	a1,a4,100002a0 <timer_read+0x4>
  uint64_t final_time = ((uint64_t)current_timeh << 32) | current_time;
  return final_time;
}
100002b0:	00008067          	ret

100002b4 <timecmp_update>:

void timecmp_update(uint64_t new_time) {
  DEV_WRITE(TIMER_BASE + TIMER_MTIMECMP, -1);
100002b4:	000307b7          	lui	a5,0x30
100002b8:	fff00713          	li	a4,-1
100002bc:	00e7a423          	sw	a4,8(a5) # 30008 <tohost+0x10000>
  DEV_WRITE(TIMER_BASE + TIMER_MTIMECMPH, new_time >> 32);
100002c0:	00b7a623          	sw	a1,12(a5)
  DEV_WRITE(TIMER_BASE + TIMER_MTIMECMP, new_time);
100002c4:	00a7a423          	sw	a0,8(a5)
}
100002c8:	00008067          	ret

100002cc <timer_enable>:
void timer_enable(uint64_t time_base) {
100002cc:	ff010113          	addi	sp,sp,-16
100002d0:	00112623          	sw	ra,12(sp)
100002d4:	00812423          	sw	s0,8(sp)
100002d8:	00912223          	sw	s1,4(sp)
  time_elapsed = 0;
100002dc:	00000693          	li	a3,0
100002e0:	00000797          	auipc	a5,0x0
100002e4:	44078793          	addi	a5,a5,1088 # 10000720 <time_elapsed>
100002e8:	00d7a023          	sw	a3,0(a5)
100002ec:	00000713          	li	a4,0
100002f0:	00e7a223          	sw	a4,4(a5)
  time_increment = time_base;
100002f4:	00000797          	auipc	a5,0x0
100002f8:	44478793          	addi	a5,a5,1092 # 10000738 <time_increment>
void timer_enable(uint64_t time_base) {
100002fc:	00050413          	mv	s0,a0
10000300:	00058493          	mv	s1,a1
  time_increment = time_base;
10000304:	00a7a023          	sw	a0,0(a5)
10000308:	00b7a223          	sw	a1,4(a5)
  uint64_t current_time = timer_read();
1000030c:	f91ff0ef          	jal	ra,1000029c <timer_read>
  current_time += time_base;
10000310:	00a40533          	add	a0,s0,a0
10000314:	00853433          	sltu	s0,a0,s0
10000318:	00b485b3          	add	a1,s1,a1
  timecmp_update(current_time);
1000031c:	00b405b3          	add	a1,s0,a1
10000320:	f95ff0ef          	jal	ra,100002b4 <timecmp_update>
  asm volatile("csrs  mie, %0\n" : : "r"(0x80));
10000324:	08000793          	li	a5,128
10000328:	3047a073          	csrs	mie,a5
  asm volatile("csrs  mstatus, %0\n" : : "r"(0x8));
1000032c:	00800793          	li	a5,8
10000330:	3007a073          	csrs	mstatus,a5
}
10000334:	00c12083          	lw	ra,12(sp)
10000338:	00812403          	lw	s0,8(sp)
1000033c:	00412483          	lw	s1,4(sp)
10000340:	01010113          	addi	sp,sp,16
10000344:	00008067          	ret

10000348 <get_elapsed_time>:

uint64_t get_elapsed_time(void) { return time_elapsed; }
10000348:	00000797          	auipc	a5,0x0
1000034c:	3d878793          	addi	a5,a5,984 # 10000720 <time_elapsed>
10000350:	0007a503          	lw	a0,0(a5)
10000354:	0047a583          	lw	a1,4(a5)
10000358:	00008067          	ret

1000035c <simple_timer_handler>:

void simple_timer_handler(void) __attribute__((interrupt));

void simple_timer_handler(void) {
1000035c:	fb010113          	addi	sp,sp,-80
10000360:	02f12023          	sw	a5,32(sp)
  increment_timecmp(time_increment);
10000364:	00000797          	auipc	a5,0x0
10000368:	3d478793          	addi	a5,a5,980 # 10000738 <time_increment>
void simple_timer_handler(void) {
1000036c:	02812e23          	sw	s0,60(sp)
  increment_timecmp(time_increment);
10000370:	0007a403          	lw	s0,0(a5)
void simple_timer_handler(void) {
10000374:	02912c23          	sw	s1,56(sp)
  increment_timecmp(time_increment);
10000378:	0047a483          	lw	s1,4(a5)
void simple_timer_handler(void) {
1000037c:	02c12623          	sw	a2,44(sp)
10000380:	01012e23          	sw	a6,28(sp)
10000384:	01112c23          	sw	a7,24(sp)
10000388:	04112623          	sw	ra,76(sp)
1000038c:	04512423          	sw	t0,72(sp)
10000390:	04612223          	sw	t1,68(sp)
10000394:	04712023          	sw	t2,64(sp)
10000398:	02d12423          	sw	a3,40(sp)
1000039c:	02e12223          	sw	a4,36(sp)
100003a0:	01c12a23          	sw	t3,20(sp)
100003a4:	01d12823          	sw	t4,16(sp)
100003a8:	01e12623          	sw	t5,12(sp)
100003ac:	01f12423          	sw	t6,8(sp)
100003b0:	02a12a23          	sw	a0,52(sp)
100003b4:	02b12823          	sw	a1,48(sp)
  uint64_t current_time = timer_read();
100003b8:	ee5ff0ef          	jal	ra,1000029c <timer_read>
  current_time += time_base;
100003bc:	00a40533          	add	a0,s0,a0
100003c0:	00853433          	sltu	s0,a0,s0
100003c4:	00b485b3          	add	a1,s1,a1
  timecmp_update(current_time);
100003c8:	00b405b3          	add	a1,s0,a1
100003cc:	ee9ff0ef          	jal	ra,100002b4 <timecmp_update>
  time_elapsed++;
100003d0:	00000597          	auipc	a1,0x0
100003d4:	35058593          	addi	a1,a1,848 # 10000720 <time_elapsed>
100003d8:	0005a803          	lw	a6,0(a1)
100003dc:	0045a883          	lw	a7,4(a1)
}
100003e0:	03c12403          	lw	s0,60(sp)
  time_elapsed++;
100003e4:	00180513          	addi	a0,a6,1
100003e8:	01053633          	sltu	a2,a0,a6
100003ec:	011607b3          	add	a5,a2,a7
100003f0:	00a5a023          	sw	a0,0(a1)
100003f4:	00f5a223          	sw	a5,4(a1)
}
100003f8:	04c12083          	lw	ra,76(sp)
100003fc:	04812283          	lw	t0,72(sp)
10000400:	04412303          	lw	t1,68(sp)
10000404:	04012383          	lw	t2,64(sp)
10000408:	03812483          	lw	s1,56(sp)
1000040c:	03412503          	lw	a0,52(sp)
10000410:	03012583          	lw	a1,48(sp)
10000414:	02c12603          	lw	a2,44(sp)
10000418:	02812683          	lw	a3,40(sp)
1000041c:	02412703          	lw	a4,36(sp)
10000420:	02012783          	lw	a5,32(sp)
10000424:	01c12803          	lw	a6,28(sp)
10000428:	01812883          	lw	a7,24(sp)
1000042c:	01412e03          	lw	t3,20(sp)
10000430:	01012e83          	lw	t4,16(sp)
10000434:	00c12f03          	lw	t5,12(sp)
10000438:	00812f83          	lw	t6,8(sp)
1000043c:	05010113          	addi	sp,sp,80
10000440:	30200073          	mret

10000444 <ipc0_handler>:

volatile uint64_t ipc0_irq_cnt;
void __attribute__((interrupt)) ipc0_handler(void) {
10000444:	fc010113          	addi	sp,sp,-64
10000448:	02b12423          	sw	a1,40(sp)
  ipc0_irq_cnt++;
1000044c:	00000597          	auipc	a1,0x0
10000450:	2e458593          	addi	a1,a1,740 # 10000730 <ipc0_irq_cnt>
void __attribute__((interrupt)) ipc0_handler(void) {
10000454:	01012a23          	sw	a6,20(sp)
  ipc0_irq_cnt++;
10000458:	0005a803          	lw	a6,0(a1)
void __attribute__((interrupt)) ipc0_handler(void) {
1000045c:	01112823          	sw	a7,16(sp)
  ipc0_irq_cnt++;
10000460:	0045a883          	lw	a7,4(a1)
void __attribute__((interrupt)) ipc0_handler(void) {
10000464:	02a12623          	sw	a0,44(sp)
  ipc0_irq_cnt++;
10000468:	00180513          	addi	a0,a6,1
void __attribute__((interrupt)) ipc0_handler(void) {
1000046c:	02c12223          	sw	a2,36(sp)
10000470:	00f12c23          	sw	a5,24(sp)
10000474:	02112e23          	sw	ra,60(sp)
10000478:	02512c23          	sw	t0,56(sp)
1000047c:	02612a23          	sw	t1,52(sp)
10000480:	02712823          	sw	t2,48(sp)
10000484:	02d12023          	sw	a3,32(sp)
10000488:	00e12e23          	sw	a4,28(sp)
1000048c:	01c12623          	sw	t3,12(sp)
10000490:	01d12423          	sw	t4,8(sp)
10000494:	01e12223          	sw	t5,4(sp)
10000498:	01f12023          	sw	t6,0(sp)
  ipc0_irq_cnt++;
1000049c:	01053633          	sltu	a2,a0,a6
100004a0:	011607b3          	add	a5,a2,a7
100004a4:	00a5a023          	sw	a0,0(a1)
100004a8:	00f5a223          	sw	a5,4(a1)
  IPC->SIGS[0].SIG=0;
100004ac:	000407b7          	lui	a5,0x40
100004b0:	2007a023          	sw	zero,512(a5) # 40200 <tohost+0x201f8>
  puts("ipc0\n");
100004b4:	00000517          	auipc	a0,0x0
100004b8:	25850513          	addi	a0,a0,600 # 1000070c <main+0x64>
100004bc:	bd9ff0ef          	jal	ra,10000094 <puts>
}
100004c0:	03c12083          	lw	ra,60(sp)
100004c4:	03812283          	lw	t0,56(sp)
100004c8:	03412303          	lw	t1,52(sp)
100004cc:	03012383          	lw	t2,48(sp)
100004d0:	02c12503          	lw	a0,44(sp)
100004d4:	02812583          	lw	a1,40(sp)
100004d8:	02412603          	lw	a2,36(sp)
100004dc:	02012683          	lw	a3,32(sp)
100004e0:	01c12703          	lw	a4,28(sp)
100004e4:	01812783          	lw	a5,24(sp)
100004e8:	01412803          	lw	a6,20(sp)
100004ec:	01012883          	lw	a7,16(sp)
100004f0:	00c12e03          	lw	t3,12(sp)
100004f4:	00812e83          	lw	t4,8(sp)
100004f8:	00412f03          	lw	t5,4(sp)
100004fc:	00012f83          	lw	t6,0(sp)
10000500:	04010113          	addi	sp,sp,64
10000504:	30200073          	mret

10000508 <ipc1_handler>:

volatile uint64_t ipc1_irq_cnt;
void __attribute__((interrupt)) ipc1_handler(void) {
10000508:	fc010113          	addi	sp,sp,-64
1000050c:	02b12423          	sw	a1,40(sp)
  ipc1_irq_cnt++;
10000510:	00000597          	auipc	a1,0x0
10000514:	21858593          	addi	a1,a1,536 # 10000728 <ipc1_irq_cnt>
void __attribute__((interrupt)) ipc1_handler(void) {
10000518:	01012a23          	sw	a6,20(sp)
  ipc1_irq_cnt++;
1000051c:	0005a803          	lw	a6,0(a1)
void __attribute__((interrupt)) ipc1_handler(void) {
10000520:	01112823          	sw	a7,16(sp)
  ipc1_irq_cnt++;
10000524:	0045a883          	lw	a7,4(a1)
void __attribute__((interrupt)) ipc1_handler(void) {
10000528:	02a12623          	sw	a0,44(sp)
  ipc1_irq_cnt++;
1000052c:	00180513          	addi	a0,a6,1
void __attribute__((interrupt)) ipc1_handler(void) {
10000530:	02c12223          	sw	a2,36(sp)
10000534:	00f12c23          	sw	a5,24(sp)
10000538:	02112e23          	sw	ra,60(sp)
1000053c:	02512c23          	sw	t0,56(sp)
10000540:	02612a23          	sw	t1,52(sp)
10000544:	02712823          	sw	t2,48(sp)
10000548:	02d12023          	sw	a3,32(sp)
1000054c:	00e12e23          	sw	a4,28(sp)
10000550:	01c12623          	sw	t3,12(sp)
10000554:	01d12423          	sw	t4,8(sp)
10000558:	01e12223          	sw	t5,4(sp)
1000055c:	01f12023          	sw	t6,0(sp)
  ipc1_irq_cnt++;
10000560:	01053633          	sltu	a2,a0,a6
10000564:	011607b3          	add	a5,a2,a7
10000568:	00a5a023          	sw	a0,0(a1)
1000056c:	00f5a223          	sw	a5,4(a1)
  IPC->SIGS[1].SIG=0;
10000570:	000407b7          	lui	a5,0x40
10000574:	2007a823          	sw	zero,528(a5) # 40210 <tohost+0x20208>
  puts("ipc1\n");
10000578:	00000517          	auipc	a0,0x0
1000057c:	19c50513          	addi	a0,a0,412 # 10000714 <main+0x6c>
10000580:	b15ff0ef          	jal	ra,10000094 <puts>
}
10000584:	03c12083          	lw	ra,60(sp)
10000588:	03812283          	lw	t0,56(sp)
1000058c:	03412303          	lw	t1,52(sp)
10000590:	03012383          	lw	t2,48(sp)
10000594:	02c12503          	lw	a0,44(sp)
10000598:	02812583          	lw	a1,40(sp)
1000059c:	02412603          	lw	a2,36(sp)
100005a0:	02012683          	lw	a3,32(sp)
100005a4:	01c12703          	lw	a4,28(sp)
100005a8:	01812783          	lw	a5,24(sp)
100005ac:	01412803          	lw	a6,20(sp)
100005b0:	01012883          	lw	a7,16(sp)
100005b4:	00c12e03          	lw	t3,12(sp)
100005b8:	00812e83          	lw	t4,8(sp)
100005bc:	00412f03          	lw	t5,4(sp)
100005c0:	00012f83          	lw	t6,0(sp)
100005c4:	04010113          	addi	sp,sp,64
100005c8:	30200073          	mret

100005cc <print_impl>:
// SPDX-License-Identifier: Apache-2.0

#include "simple_system_common.h"

#include <string.h>
void print_impl(const char*msg){puts(msg);}
100005cc:	ac9ff06f          	j	10000094 <puts>

100005d0 <reset_handler>:
  mv  x1, x0
100005d0:	00000093          	li	ra,0
  mv  x2, x0
100005d4:	00000113          	li	sp,0
  mv  x3, x0
100005d8:	00000193          	li	gp,0
  mv  x4, x0
100005dc:	00000213          	li	tp,0
  mv  x5, x0
100005e0:	00000293          	li	t0,0
  mv  x6, x0
100005e4:	00000313          	li	t1,0
  mv  x7, x0
100005e8:	00000393          	li	t2,0
  mv  x8, x0
100005ec:	00000413          	li	s0,0
  mv  x9, x0
100005f0:	00000493          	li	s1,0
  mv x10, x0
100005f4:	00000513          	li	a0,0
  mv x11, x0
100005f8:	00000593          	li	a1,0
  mv x12, x0
100005fc:	00000613          	li	a2,0
  mv x13, x0
10000600:	00000693          	li	a3,0
  mv x14, x0
10000604:	00000713          	li	a4,0
  mv x15, x0
10000608:	00000793          	li	a5,0
  mv x16, x0
1000060c:	00000813          	li	a6,0
  mv x17, x0
10000610:	00000893          	li	a7,0
  mv x18, x0
10000614:	00000913          	li	s2,0
  mv x19, x0
10000618:	00000993          	li	s3,0
  mv x20, x0
1000061c:	00000a13          	li	s4,0
  mv x21, x0
10000620:	00000a93          	li	s5,0
  mv x22, x0
10000624:	00000b13          	li	s6,0
  mv x23, x0
10000628:	00000b93          	li	s7,0
  mv x24, x0
1000062c:	00000c13          	li	s8,0
  mv x25, x0
10000630:	00000c93          	li	s9,0
  mv x26, x0
10000634:	00000d13          	li	s10,0
  mv x27, x0
10000638:	00000d93          	li	s11,0
  mv x28, x0
1000063c:	00000e13          	li	t3,0
  mv x29, x0
10000640:	00000e93          	li	t4,0
  mv x30, x0
10000644:	00000f13          	li	t5,0
  mv x31, x0
10000648:	00000f93          	li	t6,0
  la   x2, _stack_start
1000064c:	00002117          	auipc	sp,0x2
10000650:	9b410113          	addi	sp,sp,-1612 # 10002000 <_stack_start>

10000654 <_start>:
  la x26, _bss_start
10000654:	00000d17          	auipc	s10,0x0
10000658:	0ccd0d13          	addi	s10,s10,204 # 10000720 <time_elapsed>
  la x27, _bss_end
1000065c:	00000d97          	auipc	s11,0x0
10000660:	0e4d8d93          	addi	s11,s11,228 # 10000740 <_bss_end>
  bge x26, x27, zero_loop_end
10000664:	01bd5863          	bge	s10,s11,10000674 <main_entry>

10000668 <zero_loop>:
  sw x0, 0(x26)
10000668:	000d2023          	sw	zero,0(s10)
  addi x26, x26, 4
1000066c:	004d0d13          	addi	s10,s10,4
  ble x26, x27, zero_loop
10000670:	ffaddce3          	bge	s11,s10,10000668 <zero_loop>

10000674 <main_entry>:
  addi x10, x0, 0
10000674:	00000513          	li	a0,0
  addi x11, x0, 0
10000678:	00000593          	li	a1,0
  jal x1, main
1000067c:	02c000ef          	jal	ra,100006a8 <main>

10000680 <exit_fail>:
  li x5, SIM_CTRL_BASE + SIM_CTRL_CTRL
10000680:	000202b7          	lui	t0,0x20
10000684:	00828293          	addi	t0,t0,8 # 20008 <tohost>
  li x6, 1
10000688:	00100313          	li	t1,1
  sw x6, 0(x5)
1000068c:	0062a023          	sw	t1,0(t0)

10000690 <sleep_loop>:
  wfi
10000690:	10500073          	wfi
  j sleep_loop
10000694:	ffdff06f          	j	10000690 <sleep_loop>

10000698 <default_exc_handler>:
    jal x0, simple_exc_handler
10000698:	b85ff06f          	j	1000021c <simple_exc_handler>

1000069c <timer_handler>:
    jal x0, simple_timer_handler
1000069c:	cc1ff06f          	j	1000035c <simple_timer_handler>

100006a0 <fast_irq0_handler>:
    jal x0, ipc0_handler
100006a0:	da5ff06f          	j	10000444 <ipc0_handler>

100006a4 <fast_irq1_handler>:
    jal x0, ipc1_handler
100006a4:	e65ff06f          	j	10000508 <ipc1_handler>

100006a8 <main>:
#define STATUSEN (*((volatile uint32_t*)STATUSEN_ADDR))
#define STATUS_ADDR 0x40000010
#define STATUS (*((volatile uint32_t*)STATUS_ADDR))

int main(int argc, char **argv) {
  STATUSEN = 0xFFFFFFFF;
100006a8:	fff00713          	li	a4,-1
100006ac:	400007b7          	lui	a5,0x40000
100006b0:	00e7ae23          	sw	a4,28(a5) # 4000001c <fromhost+0x2fffe00c>
  while(1){
      STATUS++;
100006b4:	40000737          	lui	a4,0x40000
100006b8:	01072783          	lw	a5,16(a4) # 40000010 <fromhost+0x2fffe000>
100006bc:	00178793          	addi	a5,a5,1
100006c0:	00f72823          	sw	a5,16(a4)
  while(1){
100006c4:	ff5ff06f          	j	100006b8 <main+0x10>

Disassembly of section .rodata:

100006c8 <.rodata>:
100006c8:	5845                	li	a6,-15
100006ca:	54504543          	0x54504543
100006ce:	4f49                	li	t5,18
100006d0:	214e                	fld	ft2,208(sp)
100006d2:	2121                	jal	10000ada <_bss_end+0x39a>
100006d4:	000a                	c.slli	zero,0x2
100006d6:	0000                	unimp
100006d8:	3d3d                	jal	10000516 <ipc1_handler+0xe>
100006da:	3d3d                	jal	10000518 <ipc1_handler+0x10>
100006dc:	3d3d                	jal	1000051a <ipc1_handler+0x12>
100006de:	3d3d                	jal	1000051c <ipc1_handler+0x14>
100006e0:	3d3d                	jal	1000051e <ipc1_handler+0x16>
100006e2:	3d3d                	jal	10000520 <ipc1_handler+0x18>
100006e4:	000a                	c.slli	zero,0x2
100006e6:	0000                	unimp
100006e8:	454d                	li	a0,19
100006ea:	4350                	lw	a2,4(a4)
100006ec:	203a                	fld	ft0,392(sp)
100006ee:	2020                	fld	fs0,64(s0)
100006f0:	7830                	flw	fa2,112(s0)
100006f2:	0000                	unimp
100006f4:	4d0a                	lw	s10,128(sp)
100006f6:	53554143          	fmadd.d	ft2,fa0,fs5,fa0,rmm
100006fa:	3a45                	jal	100000aa <puts+0x16>
100006fc:	3020                	fld	fs0,96(s0)
100006fe:	0078                	addi	a4,sp,12
10000700:	4d0a                	lw	s10,128(sp)
10000702:	5654                	lw	a3,44(a2)
10000704:	4c41                	li	s8,16
10000706:	203a                	fld	ft0,392(sp)
10000708:	3020                	fld	fs0,96(s0)
1000070a:	0078                	addi	a4,sp,12
1000070c:	7069                	c.lui	zero,0xffffa
1000070e:	000a3063          	0xa3063
10000712:	0000                	unimp
10000714:	7069                	c.lui	zero,0xffffa
10000716:	000a3163          	0xa3163
	...

Disassembly of section .bss:

10000720 <time_elapsed>:
	...

10000728 <ipc1_irq_cnt>:
	...

10000730 <ipc0_irq_cnt>:
	...

10000738 <time_increment>:
	...

Disassembly of section .stack:

10001000 <_stack-0x800>:
	...

Disassembly of section .debug_info:

00000000 <.debug_info>:
       0:	06aa                	slli	a3,a3,0xa
       2:	0000                	unimp
       4:	0004                	0x4
       6:	0000                	unimp
       8:	0000                	unimp
       a:	0104                	addi	s1,sp,128
       c:	015c                	addi	a5,sp,132
       e:	0000                	unimp
      10:	5a0c                	lw	a1,48(a2)
      12:	0000                	unimp
      14:	d200                	sw	s0,32(a2)
      16:	0001                	nop
      18:	8400                	0x8400
      1a:	0000                	unimp
      1c:	4810                	lw	a2,16(s0)
      1e:	0005                	c.nop	1
      20:	0000                	unimp
      22:	0000                	unimp
      24:	0200                	addi	s0,sp,256
      26:	0708                	addi	a0,sp,896
      28:	0209                	addi	tp,tp,2
      2a:	0000                	unimp
      2c:	0102                	c.slli64	sp
      2e:	f706                	fsw	ft1,172(sp)
      30:	0000                	unimp
      32:	0200                	addi	s0,sp,256
      34:	0502                	c.slli64	a0
      36:	029d                	addi	t0,t0,7
      38:	0000                	unimp
      3a:	0402                	c.slli64	s0
      3c:	6c05                	lui	s8,0x1
      3e:	0002                	c.slli64	zero
      40:	0200                	addi	s0,sp,256
      42:	0508                	addi	a0,sp,640
      44:	00000267          	jalr	tp,zero # 0 <_min_stack-0x800>
      48:	0102                	c.slli64	sp
      4a:	f508                	fsw	fa0,40(a0)
      4c:	0000                	unimp
      4e:	0200                	addi	s0,sp,256
      50:	0702                	c.slli64	a4
      52:	011a                	slli	sp,sp,0x6
      54:	0000                	unimp
      56:	0002cf03          	lbu	t5,0(t0)
      5a:	0200                	addi	s0,sp,256
      5c:	1934                	addi	a3,sp,184
      5e:	00000067          	jr	zero # 0 <_min_stack-0x800>
      62:	5604                	lw	s1,40(a2)
      64:	0000                	unimp
      66:	0200                	addi	s0,sp,256
      68:	0704                	addi	s1,sp,896
      6a:	020e                	slli	tp,tp,0x3
      6c:	0000                	unimp
      6e:	0000c103          	lbu	sp,0(ra)
      72:	0200                	addi	s0,sp,256
      74:	00251937          	lui	s2,0x251
      78:	0000                	unimp
      7a:	6e04                	flw	fs1,24(a2)
      7c:	0000                	unimp
      7e:	0500                	addi	s0,sp,640
      80:	0504                	addi	s1,sp,640
      82:	6e69                	lui	t3,0x1a
      84:	0074                	addi	a3,sp,12
      86:	0402                	c.slli64	s0
      88:	00021307          	0x21307
      8c:	0600                	addi	s0,sp,768
      8e:	00ca                	slli	ra,ra,0x12
      90:	0000                	unimp
      92:	0310                	addi	a2,sp,384
      94:	00cf1023          	sh	a2,0(t5)
      98:	0000                	unimp
      9a:	47495307          	0x47495307
      9e:	0300                	addi	s0,sp,384
      a0:	1724                	addi	s1,sp,936
      a2:	0062                	c.slli	zero,0x18
      a4:	0000                	unimp
      a6:	0800                	addi	s0,sp,16
      a8:	001e                	c.slli	zero,0x7
      aa:	0000                	unimp
      ac:	62172503          	lw	a0,1569(a4)
      b0:	0000                	unimp
      b2:	0400                	addi	s0,sp,512
      b4:	4608                	lw	a0,8(a2)
      b6:	0000                	unimp
      b8:	0300                	addi	s0,sp,384
      ba:	1726                	slli	a4,a4,0x29
      bc:	0062                	c.slli	zero,0x18
      be:	0000                	unimp
      c0:	0808                	addi	a0,sp,16
      c2:	0000003f 62172703 	0x621727030000003f
      ca:	0000                	unimp
      cc:	0c00                	addi	s0,sp,528
      ce:	0300                	addi	s0,sp,384
      d0:	0110                	addi	a2,sp,128
      d2:	0000                	unimp
      d4:	8d032803          	lw	a6,-1840(t1)
      d8:	0000                	unimp
      da:	0900                	addi	s0,sp,144
      dc:	0000024b          	fnmsub.s	ft4,ft0,ft0,ft0,rne
      e0:	0488                	addi	a0,sp,576
      e2:	2f102a03          	lw	s4,753(zero) # 2f1 <_min_stack-0x50f>
      e6:	0001                	nop
      e8:	0800                	addi	s0,sp,16
      ea:	000000db          	0xdb
      ee:	3f172b03          	lw	s6,1009(a4)
      f2:	0001                	nop
      f4:	0000                	unimp
      f6:	c30a                	sw	sp,132(sp)
      f8:	0001                	nop
      fa:	0300                	addi	s0,sp,384
      fc:	172c                	addi	a1,sp,936
      fe:	0144                	addi	s1,sp,132
     100:	0000                	unimp
     102:	0200                	addi	s0,sp,256
     104:	be0a                	fsd	ft2,312(sp)
     106:	0001                	nop
     108:	0300                	addi	s0,sp,384
     10a:	172d                	addi	a4,a4,-21
     10c:	0164                	addi	s1,sp,140
     10e:	0000                	unimp
     110:	0400                	addi	s0,sp,512
     112:	2a0a                	fld	fs4,128(sp)
     114:	0002                	c.slli64	zero
     116:	0300                	addi	s0,sp,384
     118:	172e                	slli	a4,a4,0x2b
     11a:	0062                	c.slli	zero,0x18
     11c:	0000                	unimp
     11e:	0480                	addi	s0,sp,576
     120:	8f0a                	mv	t5,sp
     122:	0002                	c.slli64	zero
     124:	0300                	addi	s0,sp,384
     126:	0062172f          	0x62172f
     12a:	0000                	unimp
     12c:	0484                	addi	s1,sp,576
     12e:	0b00                	addi	s0,sp,400
     130:	0062                	c.slli	zero,0x18
     132:	0000                	unimp
     134:	0000013f 0000860c 	0x860c0000013f
     13c:	7f00                	flw	fs0,56(a4)
     13e:	0400                	addi	s0,sp,512
     140:	0000012f          	0x12f
     144:	0000cf0b          	0xcf0b
     148:	5400                	lw	s0,40(s0)
     14a:	0001                	nop
     14c:	0c00                	addi	s0,sp,528
     14e:	0086                	slli	ra,ra,0x1
     150:	0000                	unimp
     152:	001f 620b 0000      	0x620b001f
     158:	6400                	flw	fs0,8(s0)
     15a:	0001                	nop
     15c:	0c00                	addi	s0,sp,528
     15e:	0086                	slli	ra,ra,0x1
     160:	0000                	unimp
     162:	001f 5404 0001      	0x15404001f
     168:	0300                	addi	s0,sp,384
     16a:	030d                	addi	t1,t1,3
     16c:	0000                	unimp
     16e:	db033003          	0xdb033003
     172:	0000                	unimp
     174:	0d00                	addi	s0,sp,656
     176:	0275                	addi	tp,tp,29
     178:	0000                	unimp
     17a:	9201                	srli	a2,a2,0x20
     17c:	00007a13          	andi	s4,zero,0
     180:	0500                	addi	s0,sp,640
     182:	00072003          	lw	zero,0(a4)
     186:	0d10                	addi	a2,sp,656
     188:	0258                	addi	a4,sp,260
     18a:	0000                	unimp
     18c:	9301                	srli	a4,a4,0x20
     18e:	6e0a                	flw	ft8,128(sp)
     190:	0000                	unimp
     192:	0500                	addi	s0,sp,640
     194:	00073803          	0x73803
     198:	0d10                	addi	a2,sp,656
     19a:	0144                	addi	s1,sp,132
     19c:	0000                	unimp
     19e:	c301                	beqz	a4,19e <_min_stack-0x662>
     1a0:	00007a13          	andi	s4,zero,0
     1a4:	0500                	addi	s0,sp,640
     1a6:	00073003          	0x73003
     1aa:	0d10                	addi	a2,sp,656
     1ac:	000002a7          	0x2a7
     1b0:	ca01                	beqz	a2,1c0 <_min_stack-0x640>
     1b2:	00007a13          	andi	s4,zero,0
     1b6:	0500                	addi	s0,sp,640
     1b8:	00072803          	lw	a6,0(a4)
     1bc:	0e10                	addi	a2,sp,784
     1be:	004d                	c.nop	19
     1c0:	0000                	unimp
     1c2:	cb01                	beqz	a4,1d2 <_min_stack-0x62e>
     1c4:	0821                	addi	a6,a6,8
     1c6:	0005                	c.nop	1
     1c8:	c410                	sw	a2,8(s0)
     1ca:	0000                	unimp
     1cc:	0100                	addi	s0,sp,128
     1ce:	e79c                	fsw	fa5,8(a5)
     1d0:	0001                	nop
     1d2:	0f00                	addi	s0,sp,912
     1d4:	0584                	addi	s1,sp,704
     1d6:	1000                	addi	s0,sp,32
     1d8:	05c0                	addi	s0,sp,708
     1da:	0000                	unimp
     1dc:	0110                	addi	a2,sp,128
     1de:	055a                	slli	a0,a0,0x16
     1e0:	00071403          	lh	s0,0(a4)
     1e4:	0010                	0x10
     1e6:	0e00                	addi	s0,sp,784
     1e8:	0282                	c.slli64	t0
     1ea:	0000                	unimp
     1ec:	c401                	beqz	s0,1f4 <_min_stack-0x60c>
     1ee:	4421                	li	s0,8
     1f0:	0004                	0x4
     1f2:	c410                	sw	a2,8(s0)
     1f4:	0000                	unimp
     1f6:	0100                	addi	s0,sp,128
     1f8:	119c                	addi	a5,sp,224
     1fa:	0002                	c.slli64	zero
     1fc:	0f00                	addi	s0,sp,912
     1fe:	04c0                	addi	s0,sp,580
     200:	1000                	addi	s0,sp,32
     202:	05c0                	addi	s0,sp,708
     204:	0000                	unimp
     206:	0110                	addi	a2,sp,128
     208:	055a                	slli	a0,a0,0x16
     20a:	00070c03          	lb	s8,0(a4)
     20e:	0010                	0x10
     210:	0e00                	addi	s0,sp,784
     212:	02f8                	addi	a4,sp,332
     214:	0000                	unimp
     216:	be01                	j	fffffd26 <fromhost+0xefffdd16>
     218:	5c06                	lw	s8,96(sp)
     21a:	e8100003          	lb	zero,-383(zero) # fffffe81 <fromhost+0xefffde71>
     21e:	0000                	unimp
     220:	0100                	addi	s0,sp,128
     222:	5f9c                	lw	a5,56(a5)
     224:	0002                	c.slli64	zero
     226:	1100                	addi	s0,sp,160
     228:	034c                	addi	a1,sp,388
     22a:	0000                	unimp
     22c:	037c                	addi	a5,sp,396
     22e:	1000                	addi	s0,sp,32
     230:	0058                	addi	a4,sp,4
     232:	0000                	unimp
     234:	bf01                	j	144 <_min_stack-0x6bc>
     236:	03591203          	lh	tp,53(s2) # 251035 <tohost+0x23102d>
     23a:	0000                	unimp
     23c:	0000                	unimp
     23e:	0000                	unimp
     240:	00005813          	srli	a6,zero,0x0
     244:	1400                	addi	s0,sp,544
     246:	0365                	addi	t1,t1,25
     248:	0000                	unimp
     24a:	bc15                	j	fffffc7e <fromhost+0xefffdc6e>
     24c:	9f100003          	lb	zero,-1551(zero) # fffff9f1 <fromhost+0xefffd9e1>
     250:	0002                	c.slli64	zero
     252:	1500                	addi	s0,sp,672
     254:	03d0                	addi	a2,sp,452
     256:	1000                	addi	s0,sp,32
     258:	0275                	addi	tp,tp,29
     25a:	0000                	unimp
     25c:	0000                	unimp
     25e:	1600                	addi	s0,sp,800
     260:	02b4                	addi	a3,sp,328
     262:	0000                	unimp
     264:	ba01                	j	fffffb74 <fromhost+0xefffdb64>
     266:	6e0a                	flw	ft8,128(sp)
     268:	0000                	unimp
     26a:	4800                	lw	s0,16(s0)
     26c:	14100003          	lb	zero,321(zero) # 141 <_min_stack-0x6bf>
     270:	0000                	unimp
     272:	0100                	addi	s0,sp,128
     274:	0e9c                	addi	a5,sp,848
     276:	0135                	addi	sp,sp,13
     278:	0000                	unimp
     27a:	b401                	j	fffffc7a <fromhost+0xefffdc6a>
     27c:	b406                	fsd	ft1,40(sp)
     27e:	0002                	c.slli64	zero
     280:	1810                	addi	a2,sp,48
     282:	0000                	unimp
     284:	0100                	addi	s0,sp,128
     286:	9f9c                	0x9f9c
     288:	0002                	c.slli64	zero
     28a:	1700                	addi	s0,sp,928
     28c:	0294                	addi	a3,sp,320
     28e:	0000                	unimp
     290:	b401                	j	fffffc90 <fromhost+0xefffdc80>
     292:	6e1e                	flw	ft8,196(sp)
     294:	0000                	unimp
     296:	0600                	addi	s0,sp,768
     298:	935a                	add	t1,t1,s6
     29a:	5b04                	lw	s1,48(a4)
     29c:	18000493          	li	s1,384
     2a0:	00b6                	slli	ra,ra,0xd
     2a2:	0000                	unimp
     2a4:	a801                	j	2b4 <_min_stack-0x54c>
     2a6:	6e0a                	flw	ft8,128(sp)
     2a8:	0000                	unimp
     2aa:	9c00                	0x9c00
     2ac:	0002                	c.slli64	zero
     2ae:	1810                	addi	a2,sp,48
     2b0:	0000                	unimp
     2b2:	0100                	addi	s0,sp,128
     2b4:	e29c                	fsw	fa5,0(a3)
     2b6:	0002                	c.slli64	zero
     2b8:	1900                	addi	s0,sp,176
     2ba:	0000022f          	0x22f
     2be:	a901                	j	6ce <_min_stack-0x132>
     2c0:	560c                	lw	a1,40(a2)
     2c2:	0000                	unimp
     2c4:	0100                	addi	s0,sp,128
     2c6:	195e                	slli	s2,s2,0x37
     2c8:	0032                	c.slli	zero,0xc
     2ca:	0000                	unimp
     2cc:	aa01                	j	3dc <_min_stack-0x424>
     2ce:	560c                	lw	a1,40(a2)
     2d0:	0000                	unimp
     2d2:	0100                	addi	s0,sp,128
     2d4:	1a5a                	slli	s4,s4,0x36
     2d6:	0151                	addi	sp,sp,20
     2d8:	0000                	unimp
     2da:	b001                	j	fffffada <fromhost+0xefffdaca>
     2dc:	6e0c                	flw	fa1,24(a2)
     2de:	0000                	unimp
     2e0:	0000                	unimp
     2e2:	00023d1b          	0x23d1b
     2e6:	0100                	addi	s0,sp,128
     2e8:	06a6                	slli	a3,a3,0x9
     2ea:	0290                	addi	a2,sp,320
     2ec:	1000                	addi	s0,sp,32
     2ee:	000c                	0xc
     2f0:	0000                	unimp
     2f2:	9c01                	0x9c01
     2f4:	a90e                	fsd	ft3,144(sp)
     2f6:	0000                	unimp
     2f8:	0100                	addi	s0,sp,128
     2fa:	02cc069b          	0x2cc069b
     2fe:	1000                	addi	s0,sp,32
     300:	007c                	addi	a5,sp,12
     302:	0000                	unimp
     304:	9c01                	0x9c01
     306:	034c                	addi	a1,sp,388
     308:	0000                	unimp
     30a:	c81c                	sw	a5,16(s0)
     30c:	0001                	nop
     30e:	0100                	addi	s0,sp,128
     310:	006e1c9b          	0x6e1c9b
     314:	0000                	unimp
     316:	0018                	0x18
     318:	0000                	unimp
     31a:	4c1d                	li	s8,7
     31c:	0c000003          	lb	zero,192(zero) # c0 <_min_stack-0x740>
     320:	18100003          	lb	zero,385(zero) # 181 <_min_stack-0x67f>
     324:	0000                	unimp
     326:	0100                	addi	s0,sp,128
     328:	039f 5912 0003      	0x35912039f
     32e:	4000                	lw	s0,0(s0)
     330:	0000                	unimp
     332:	1400                	addi	s0,sp,544
     334:	0365                	addi	t1,t1,25
     336:	0000                	unimp
     338:	1015                	c.nop	-27
     33a:	9f100003          	lb	zero,-1551(zero) # fffff9f1 <fromhost+0xefffd9e1>
     33e:	0002                	c.slli64	zero
     340:	1500                	addi	s0,sp,672
     342:	0324                	addi	s1,sp,392
     344:	1000                	addi	s0,sp,32
     346:	0275                	addi	tp,tp,29
     348:	0000                	unimp
     34a:	0000                	unimp
     34c:	e61e                	fsw	ft7,12(sp)
     34e:	0002                	c.slli64	zero
     350:	0100                	addi	s0,sp,128
     352:	1495                	addi	s1,s1,-27
     354:	00037203          	0x37203
     358:	1f00                	addi	s0,sp,944
     35a:	01c8                	addi	a0,sp,196
     35c:	0000                	unimp
     35e:	9501                	srai	a0,a0,0x20
     360:	00006e2f          	0x6e2f
     364:	1a00                	addi	s0,sp,304
     366:	0032                	c.slli	zero,0xc
     368:	0000                	unimp
     36a:	9601                	srai	a2,a2,0x20
     36c:	6e0c                	flw	fa1,24(a2)
     36e:	0000                	unimp
     370:	0000                	unimp
     372:	0b0e                	slli	s6,s6,0x3
     374:	0000                	unimp
     376:	0100                	addi	s0,sp,128
     378:	021c0683          	lb	a3,33(s8) # 1021 <_stack_len+0x21>
     37c:	1000                	addi	s0,sp,32
     37e:	0074                	addi	a3,sp,12
     380:	0000                	unimp
     382:	9c01                	0x9c01
     384:	00000493          	li	s1,0
     388:	cf20                	sw	s0,88(a4)
     38a:	0004                	0x4
     38c:	4800                	lw	s0,16(s0)
     38e:	0002                	c.slli64	zero
     390:	0410                	addi	a2,sp,512
     392:	0000                	unimp
     394:	0100                	addi	s0,sp,128
     396:	03a20a87          	0x3a20a87
     39a:	0000                	unimp
     39c:	e014                	fsw	fa3,0(s0)
     39e:	0004                	0x4
     3a0:	0000                	unimp
     3a2:	b120                	fsd	fs0,96(a0)
     3a4:	0004                	0x4
     3a6:	5c00                	lw	s0,56(s0)
     3a8:	0002                	c.slli64	zero
     3aa:	0410                	addi	a2,sp,512
     3ac:	0000                	unimp
     3ae:	0100                	addi	s0,sp,128
     3b0:	0a89                	addi	s5,s5,2
     3b2:	03bc                	addi	a5,sp,456
     3b4:	0000                	unimp
     3b6:	c214                	sw	a3,0(a2)
     3b8:	0004                	0x4
     3ba:	0000                	unimp
     3bc:	9320                	0x9320
     3be:	0004                	0x4
     3c0:	7000                	flw	fs0,32(s0)
     3c2:	0002                	c.slli64	zero
     3c4:	0410                	addi	a2,sp,512
     3c6:	0000                	unimp
     3c8:	0100                	addi	s0,sp,128
     3ca:	03d60a8b          	0x3d60a8b
     3ce:	0000                	unimp
     3d0:	a414                	fsd	fa3,8(s0)
     3d2:	0004                	0x4
     3d4:	0000                	unimp
     3d6:	1a20                	addi	s0,sp,312
     3d8:	0006                	c.slli	zero,0x1
     3da:	7800                	flw	fs0,48(s0)
     3dc:	0002                	c.slli64	zero
     3de:	0c10                	addi	a2,sp,528
     3e0:	0000                	unimp
     3e2:	0100                	addi	s0,sp,128
     3e4:	038c                	addi	a1,sp,448
     3e6:	03f4                	addi	a3,sp,460
     3e8:	0000                	unimp
     3ea:	2b12                	fld	fs6,256(sp)
     3ec:	0006                	c.slli	zero,0x1
     3ee:	5800                	lw	s0,48(s0)
     3f0:	0000                	unimp
     3f2:	0000                	unimp
     3f4:	3621                	jal	fffffefc <fromhost+0xefffdeec>
     3f6:	0005                	c.nop	1
     3f8:	8400                	0x8400
     3fa:	0002                	c.slli64	zero
     3fc:	0810                	addi	a2,sp,16
     3fe:	0000                	unimp
     400:	0100                	addi	s0,sp,128
     402:	038d                	addi	t2,t2,3
     404:	3022                	fld	ft0,40(sp)
     406:	0002                	c.slli64	zero
     408:	c010                	sw	a2,0(s0)
     40a:	0005                	c.nop	1
     40c:	1b00                	addi	s0,sp,432
     40e:	0004                	0x4
     410:	1000                	addi	s0,sp,32
     412:	5a01                	li	s4,-32
     414:	0305                	addi	t1,t1,1
     416:	06c8                	addi	a0,sp,836
     418:	1000                	addi	s0,sp,32
     41a:	2200                	fld	fs0,0(a2)
     41c:	023c                	addi	a5,sp,264
     41e:	1000                	addi	s0,sp,32
     420:	05c0                	addi	s0,sp,708
     422:	0000                	unimp
     424:	0432                	slli	s0,s0,0xc
     426:	0000                	unimp
     428:	0110                	addi	a2,sp,128
     42a:	055a                	slli	a0,a0,0x16
     42c:	0006d803          	lhu	a6,0(a3)
     430:	0010                	0x10
     432:	4822                	lw	a6,8(sp)
     434:	0002                	c.slli64	zero
     436:	c010                	sw	a2,0(s0)
     438:	0005                	c.nop	1
     43a:	4900                	lw	s0,16(a0)
     43c:	0004                	0x4
     43e:	1000                	addi	s0,sp,32
     440:	5a01                	li	s4,-32
     442:	0305                	addi	t1,t1,1
     444:	06e8                	addi	a0,sp,844
     446:	1000                	addi	s0,sp,32
     448:	1500                	addi	s0,sp,672
     44a:	0250                	addi	a2,sp,260
     44c:	1000                	addi	s0,sp,32
     44e:	0000053f 00025c22 	0x25c220000053f
     456:	c010                	sw	a2,0(s0)
     458:	0005                	c.nop	1
     45a:	6900                	flw	fs0,16(a0)
     45c:	0004                	0x4
     45e:	1000                	addi	s0,sp,32
     460:	5a01                	li	s4,-32
     462:	0305                	addi	t1,t1,1
     464:	06f4                	addi	a3,sp,844
     466:	1000                	addi	s0,sp,32
     468:	1500                	addi	s0,sp,672
     46a:	0264                	addi	s1,sp,268
     46c:	1000                	addi	s0,sp,32
     46e:	0000053f 00027022 	0x270220000053f
     476:	c010                	sw	a2,0(s0)
     478:	0005                	c.nop	1
     47a:	8900                	0x8900
     47c:	0004                	0x4
     47e:	1000                	addi	s0,sp,32
     480:	5a01                	li	s4,-32
     482:	0305                	addi	t1,t1,1
     484:	0700                	addi	s0,sp,896
     486:	1000                	addi	s0,sp,32
     488:	1500                	addi	s0,sp,672
     48a:	0278                	addi	a4,sp,268
     48c:	1000                	addi	s0,sp,32
     48e:	0000053f 02202300 	0x22023000000053f
     496:	0000                	unimp
     498:	7d01                	lui	s10,0xfffe0
     49a:	860e                	mv	a2,gp
     49c:	0000                	unimp
     49e:	0100                	addi	s0,sp,128
     4a0:	04b1                	addi	s1,s1,12
     4a2:	0000                	unimp
     4a4:	c81a                	sw	t1,16(sp)
     4a6:	0004                	0x4
     4a8:	0100                	addi	s0,sp,128
     4aa:	0c7e                	slli	s8,s8,0x1f
     4ac:	0056                	c.slli	zero,0x15
     4ae:	0000                	unimp
     4b0:	2300                	fld	fs0,0(a4)
     4b2:	0000                	unimp
     4b4:	0000                	unimp
     4b6:	7701                	lui	a4,0xfffe0
     4b8:	860e                	mv	a2,gp
     4ba:	0000                	unimp
     4bc:	0100                	addi	s0,sp,128
     4be:	000004cf          	fnmadd.s	fs1,ft0,ft0,ft0,rne
     4c2:	c81a                	sw	t1,16(sp)
     4c4:	0004                	0x4
     4c6:	0100                	addi	s0,sp,128
     4c8:	0c78                	addi	a4,sp,540
     4ca:	0056                	c.slli	zero,0x15
     4cc:	0000                	unimp
     4ce:	2300                	fld	fs0,0(a4)
     4d0:	02dd                	addi	t0,t0,23
     4d2:	0000                	unimp
     4d4:	7101                	addi	sp,sp,-512
     4d6:	860e                	mv	a2,gp
     4d8:	0000                	unimp
     4da:	0100                	addi	s0,sp,128
     4dc:	04ed                	addi	s1,s1,27
     4de:	0000                	unimp
     4e0:	c81a                	sw	t1,16(sp)
     4e2:	0004                	0x4
     4e4:	0100                	addi	s0,sp,128
     4e6:	0c72                	slli	s8,s8,0x1c
     4e8:	0056                	c.slli	zero,0x15
     4ea:	0000                	unimp
     4ec:	0e00                	addi	s0,sp,784
     4ee:	0024                	addi	s1,sp,8
     4f0:	0000                	unimp
     4f2:	6901                	0x6901
     4f4:	f406                	fsw	ft1,40(sp)
     4f6:	0001                	nop
     4f8:	1010                	addi	a2,sp,32
     4fa:	0000                	unimp
     4fc:	0100                	addi	s0,sp,128
     4fe:	249c                	fld	fa5,8(s1)
     500:	0005                	c.nop	1
     502:	1c00                	addi	s0,sp,560
     504:	000000af          	0xaf
     508:	6901                	0x6901
     50a:	7f18                	flw	fa4,56(a4)
     50c:	0000                	unimp
     50e:	6c00                	flw	fs0,24(s0)
     510:	0000                	unimp
     512:	2400                	fld	fs0,8(s0)
     514:	00e9                	addi	ra,ra,26
     516:	0000                	unimp
     518:	6b01                	0x6b01
     51a:	8610                	0x8610
     51c:	0000                	unimp
     51e:	8d00                	0x8d00
     520:	0000                	unimp
     522:	0000                	unimp
     524:	0325                	addi	t1,t1,9
     526:	0001                	nop
     528:	0100                	addi	s0,sp,128
     52a:	00f80627          	0xf80627
     52e:	1000                	addi	s0,sp,32
     530:	00fc                	addi	a5,sp,76
     532:	0000                	unimp
     534:	9c01                	0x9c01
     536:	e026                	fsw	fs1,0(sp)
     538:	0000                	unimp
     53a:	0100                	addi	s0,sp,128
     53c:	0625                	addi	a2,a2,9
     53e:	0e01                	addi	t3,t3,0
     540:	00000313          	li	t1,0
     544:	1501                	addi	a0,a0,-32
     546:	b406                	fsd	ft1,40(sp)
     548:	0000                	unimp
     54a:	3410                	fld	fa2,40(s0)
     54c:	0000                	unimp
     54e:	0100                	addi	s0,sp,128
     550:	c09c                	sw	a5,0(s1)
     552:	0005                	c.nop	1
     554:	2700                	fld	fs0,8(a4)
     556:	0068                	addi	a0,sp,12
     558:	1501                	addi	a0,a0,-32
     55a:	5616                	lw	a2,100(sp)
     55c:	0000                	unimp
     55e:	bc00                	fsd	fs0,56(s0)
     560:	0000                	unimp
     562:	2400                	fld	fs0,8(s0)
     564:	02c5                	addi	t0,t0,17
     566:	0000                	unimp
     568:	1601                	addi	a2,a2,-32
     56a:	00007f07          	0x7f07
     56e:	da00                	sw	s0,48(a2)
     570:	0000                	unimp
     572:	1300                	addi	s0,sp,416
     574:	0018                	0x18
     576:	0000                	unimp
     578:	6928                	flw	fa0,80(a0)
     57a:	0100                	addi	s0,sp,128
     57c:	0c19                	addi	s8,s8,6
     57e:	007f                	0x7f
     580:	0000                	unimp
     582:	0114                	addi	a3,sp,128
     584:	0000                	unimp
     586:	1a29                	addi	s4,s4,-22
     588:	0006                	c.slli	zero,0x1
     58a:	bc00                	fsd	fs0,56(s0)
     58c:	0000                	unimp
     58e:	3810                	fld	fa2,48(s0)
     590:	0000                	unimp
     592:	0100                	addi	s0,sp,128
     594:	071f 05a4 0000      	0x5a4071f
     59a:	2b12                	fld	fs6,256(sp)
     59c:	0006                	c.slli	zero,0x1
     59e:	5500                	lw	s0,40(a0)
     5a0:	0001                	nop
     5a2:	0000                	unimp
     5a4:	1a1d                	addi	s4,s4,-25
     5a6:	0006                	c.slli	zero,0x1
     5a8:	c800                	sw	s0,16(s0)
     5aa:	0000                	unimp
     5ac:	0010                	0x10
     5ae:	0000                	unimp
     5b0:	0100                	addi	s0,sp,128
     5b2:	071d                	addi	a4,a4,7
     5b4:	2b12                	fld	fs6,256(sp)
     5b6:	0006                	c.slli	zero,0x1
     5b8:	7500                	flw	fs0,40(a0)
     5ba:	0001                	nop
     5bc:	0000                	unimp
     5be:	0000                	unimp
     5c0:	d818                	sw	a4,48(s0)
     5c2:	0002                	c.slli64	zero
     5c4:	0100                	addi	s0,sp,128
     5c6:	050d                	addi	a0,a0,3
     5c8:	007f                	0x7f
     5ca:	0000                	unimp
     5cc:	0094                	addi	a3,sp,64
     5ce:	1000                	addi	s0,sp,32
     5d0:	0020                	addi	s0,sp,8
     5d2:	0000                	unimp
     5d4:	9c01                	0x9c01
     5d6:	0608                	addi	a0,sp,768
     5d8:	0000                	unimp
     5da:	72747327          	0x72747327
     5de:	0100                	addi	s0,sp,128
     5e0:	160d                	addi	a2,a2,-29
     5e2:	0608                	addi	a0,sp,768
     5e4:	0000                	unimp
     5e6:	018a                	slli	gp,gp,0x2
     5e8:	0000                	unimp
     5ea:	1a11                	addi	s4,s4,-28
     5ec:	0006                	c.slli	zero,0x1
     5ee:	9400                	0x9400
     5f0:	0000                	unimp
     5f2:	0010                	0x10
     5f4:	0000                	unimp
     5f6:	0100                	addi	s0,sp,128
     5f8:	2b2a050f          	0x2b2a050f
     5fc:	0006                	c.slli	zero,0x1
     5fe:	0600                	addi	s0,sp,768
     600:	007f                	0x7f
     602:	ff08                	fsw	fa0,56(a4)
     604:	9f1a                	add	t5,t5,t1
     606:	0000                	unimp
     608:	0615042b          	0x615042b
     60c:	0000                	unimp
     60e:	0102                	c.slli64	sp
     610:	fe08                	fsw	fa0,56(a2)
     612:	0000                	unimp
     614:	2c00                	fld	fs0,24(s0)
     616:	060e                	slli	a2,a2,0x3
     618:	0000                	unimp
     61a:	2d2d                	jal	c54 <_min_stack+0x454>
     61c:	0001                	nop
     61e:	0100                	addi	s0,sp,128
     620:	007f0507          	0x7f0507
     624:	0000                	unimp
     626:	3601                	jal	126 <_min_stack-0x6da>
     628:	0006                	c.slli	zero,0x1
     62a:	2e00                	fld	fs0,24(a2)
     62c:	07010063          	beq	sp,a6,68c <_min_stack-0x174>
     630:	7f11                	lui	t5,0xfffe4
     632:	0000                	unimp
     634:	0000                	unimp
     636:	00061a2f          	0x61a2f
     63a:	8400                	0x8400
     63c:	0000                	unimp
     63e:	1010                	addi	a2,sp,32
     640:	0000                	unimp
     642:	0100                	addi	s0,sp,128
     644:	519c                	lw	a5,32(a1)
     646:	0006                	c.slli	zero,0x1
     648:	2a00                	fld	fs0,16(a2)
     64a:	0000062b          	0x62b
     64e:	5a01                	li	s4,-32
     650:	3000                	fld	fs0,32(s0)
     652:	0536                	slli	a0,a0,0xd
     654:	0000                	unimp
     656:	00e8                	addi	a0,sp,76
     658:	1000                	addi	s0,sp,32
     65a:	0010                	0x10
     65c:	0000                	unimp
     65e:	9c01                	0x9c01
     660:	0004cf2f          	0x4cf2f
     664:	0400                	addi	s0,sp,512
     666:	0002                	c.slli64	zero
     668:	0810                	addi	a2,sp,16
     66a:	0000                	unimp
     66c:	0100                	addi	s0,sp,128
     66e:	7b9c                	flw	fa5,48(a5)
     670:	0006                	c.slli	zero,0x1
     672:	3100                	fld	fs0,32(a0)
     674:	04e0                	addi	s0,sp,588
     676:	0000                	unimp
     678:	5a01                	li	s4,-32
     67a:	2f00                	fld	fs0,24(a4)
     67c:	04b1                	addi	s1,s1,12
     67e:	0000                	unimp
     680:	020c                	addi	a1,sp,256
     682:	1000                	addi	s0,sp,32
     684:	0008                	0x8
     686:	0000                	unimp
     688:	9c01                	0x9c01
     68a:	0696                	slli	a3,a3,0x5
     68c:	0000                	unimp
     68e:	c231                	beqz	a2,6d2 <_min_stack-0x12e>
     690:	0004                	0x4
     692:	0100                	addi	s0,sp,128
     694:	005a                	c.slli	zero,0x16
     696:	9332                	add	t1,t1,a2
     698:	0004                	0x4
     69a:	1400                	addi	s0,sp,544
     69c:	0002                	c.slli64	zero
     69e:	0810                	addi	a2,sp,16
     6a0:	0000                	unimp
     6a2:	0100                	addi	s0,sp,128
     6a4:	319c                	fld	fa5,32(a1)
     6a6:	04a4                	addi	s1,sp,584
     6a8:	0000                	unimp
     6aa:	5a01                	li	s4,-32
     6ac:	0000                	unimp
     6ae:	099f 0000 0004      	0x40000099f
     6b4:	0318                	addi	a4,sp,384
     6b6:	0000                	unimp
     6b8:	0104                	addi	s1,sp,128
     6ba:	015c                	addi	a5,sp,132
     6bc:	0000                	unimp
     6be:	9e0c                	0x9e0c
     6c0:	0006                	c.slli	zero,0x1
     6c2:	d200                	sw	s0,32(a2)
     6c4:	0001                	nop
     6c6:	7000                	flw	fs0,32(s0)
     6c8:	0000                	unimp
     6ca:	0000                	unimp
     6cc:	0000                	unimp
     6ce:	4d00                	lw	s0,24(a0)
     6d0:	02000007          	0x2000007
     6d4:	0601                	addi	a2,a2,0
     6d6:	000000f7          	0xf7
     6da:	0202                	c.slli64	tp
     6dc:	9d05                	0x9d05
     6de:	0002                	c.slli64	zero
     6e0:	0200                	addi	s0,sp,256
     6e2:	0504                	addi	s1,sp,640
     6e4:	026c                	addi	a1,sp,268
     6e6:	0000                	unimp
     6e8:	0802                	c.slli64	a6
     6ea:	6705                	lui	a4,0x1
     6ec:	0002                	c.slli64	zero
     6ee:	0200                	addi	s0,sp,256
     6f0:	0801                	addi	a6,a6,0
     6f2:	00f5                	addi	ra,ra,29
     6f4:	0000                	unimp
     6f6:	0202                	c.slli64	tp
     6f8:	00011a07          	0x11a07
     6fc:	0300                	addi	s0,sp,384
     6fe:	000002cf          	fnmadd.s	ft5,ft0,ft0,ft0,rne
     702:	3402                	fld	fs0,32(sp)
     704:	5b19                	li	s6,-26
     706:	0000                	unimp
     708:	0200                	addi	s0,sp,256
     70a:	0704                	addi	s1,sp,896
     70c:	020e                	slli	tp,tp,0x3
     70e:	0000                	unimp
     710:	0802                	c.slli64	a6
     712:	00020907          	0x20907
     716:	0400                	addi	s0,sp,512
     718:	0504                	addi	s1,sp,640
     71a:	6e69                	lui	t3,0x1a
     71c:	0074                	addi	a3,sp,12
     71e:	0402                	c.slli64	s0
     720:	00021307          	0x21307
     724:	0200                	addi	s0,sp,256
     726:	0410                	addi	a2,sp,512
     728:	00000433          	add	s0,zero,zero
     72c:	00053803          	0x53803
     730:	0300                	addi	s0,sp,384
     732:	0d0c                	addi	a1,sp,656
     734:	0069                	c.nop	26
     736:	0000                	unimp
     738:	00052703          	lw	a4,0(a0)
     73c:	0400                	addi	s0,sp,512
     73e:	0e2c                	addi	a1,sp,792
     740:	00000033          	add	zero,zero,zero
     744:	00060203          	lb	tp,0(a2)
     748:	0400                	addi	s0,sp,512
     74a:	0e72                	slli	t3,t3,0x1c
     74c:	00000033          	add	zero,zero,zero
     750:	00068b03          	lb	s6,0(a3)
     754:	0400                	addi	s0,sp,512
     756:	1791                	addi	a5,a5,-28
     758:	0069                	c.nop	26
     75a:	0000                	unimp
     75c:	d505                	beqz	a0,684 <_min_stack-0x17c>
     75e:	0004                	0x4
     760:	0500                	addi	s0,sp,640
     762:	015e                	slli	sp,sp,0x17
     764:	00007017          	auipc	zero,0x7
     768:	0600                	addi	s0,sp,768
     76a:	0404                	addi	s1,sp,512
     76c:	03a6                	slli	t2,t2,0x9
     76e:	00dd                	addi	ra,ra,23
     770:	0000                	unimp
     772:	0004cf07          	flq	ft10,0(s1)
     776:	0400                	addi	s0,sp,512
     778:	0ca8                	addi	a0,sp,600
     77a:	00ae                	slli	ra,ra,0xb
     77c:	0000                	unimp
     77e:	00048107          	0x48107
     782:	0400                	addi	s0,sp,512
     784:	13a9                	addi	t2,t2,-22
     786:	00dd                	addi	ra,ra,23
     788:	0000                	unimp
     78a:	0800                	addi	s0,sp,16
     78c:	0041                	c.nop	16
     78e:	0000                	unimp
     790:	00ed                	addi	ra,ra,27
     792:	0000                	unimp
     794:	7009                	c.lui	zero,0xfffe2
     796:	0000                	unimp
     798:	0300                	addi	s0,sp,384
     79a:	0a00                	addi	s0,sp,272
     79c:	0408                	addi	a0,sp,512
     79e:	011109a3          	sb	a7,19(sp)
     7a2:	0000                	unimp
     7a4:	0005f40b          	0x5f40b
     7a8:	0400                	addi	s0,sp,512
     7aa:	07a5                	addi	a5,a5,9
     7ac:	0069                	c.nop	26
     7ae:	0000                	unimp
     7b0:	0b00                	addi	s0,sp,400
     7b2:	0626                	slli	a2,a2,0x9
     7b4:	0000                	unimp
     7b6:	aa04                	fsd	fs1,16(a2)
     7b8:	bb05                	j	4e8 <_min_stack-0x318>
     7ba:	0000                	unimp
     7bc:	0400                	addi	s0,sp,512
     7be:	0300                	addi	s0,sp,384
     7c0:	0576                	slli	a0,a0,0x1d
     7c2:	0000                	unimp
     7c4:	ab04                	fsd	fs1,16(a4)
     7c6:	0000ed03          	0xed03
     7ca:	0300                	addi	s0,sp,384
     7cc:	044a                	slli	s0,s0,0x12
     7ce:	0000                	unimp
     7d0:	af04                	fsd	fs1,24(a4)
     7d2:	00007e1b          	0x7e1b
     7d6:	0c00                	addi	s0,sp,528
     7d8:	0d04                	addi	s1,sp,656
     7da:	3104                	fld	fs1,32(a0)
     7dc:	0001                	nop
     7de:	0200                	addi	s0,sp,256
     7e0:	0801                	addi	a6,a6,0
     7e2:	00fe                	slli	ra,ra,0x1f
     7e4:	0000                	unimp
     7e6:	310e                	fld	ft2,224(sp)
     7e8:	0001                	nop
     7ea:	0300                	addi	s0,sp,384
     7ec:	063c                	addi	a5,sp,776
     7ee:	0000                	unimp
     7f0:	1606                	slli	a2,a2,0x21
     7f2:	5b19                	li	s6,-26
     7f4:	0000                	unimp
     7f6:	0f00                	addi	s0,sp,912
     7f8:	0000045b          	0x45b
     7fc:	0618                	addi	a4,sp,768
     7fe:	01a3082f          	0x1a3082f
     802:	0000                	unimp
     804:	0005970b          	0x5970b
     808:	0600                	addi	s0,sp,768
     80a:	1331                	addi	t1,t1,-20
     80c:	000001a3          	sb	zero,3(zero) # 3 <_min_stack-0x7fd>
     810:	1000                	addi	s0,sp,32
     812:	6b5f 0600 0732      	0x73206006b5f
     818:	0069                	c.nop	26
     81a:	0000                	unimp
     81c:	0b04                	addi	s1,sp,400
     81e:	05df 0000 3206      	0x3206000005df
     824:	0000690b          	0x690b
     828:	0800                	addi	s0,sp,16
     82a:	0004440b          	0x4440b
     82e:	0600                	addi	s0,sp,768
     830:	1432                	slli	s0,s0,0x2c
     832:	0069                	c.nop	26
     834:	0000                	unimp
     836:	0b0c                	addi	a1,sp,400
     838:	0676                	slli	a2,a2,0x1d
     83a:	0000                	unimp
     83c:	3206                	fld	ft4,96(sp)
     83e:	0000691b          	0x691b
     842:	1000                	addi	s0,sp,32
     844:	5f10                	lw	a2,56(a4)
     846:	0078                	addi	a4,sp,12
     848:	3306                	fld	ft6,96(sp)
     84a:	0001a90b          	0x1a90b
     84e:	1400                	addi	s0,sp,544
     850:	0d00                	addi	s0,sp,656
     852:	4904                	lw	s1,16(a0)
     854:	0001                	nop
     856:	0800                	addi	s0,sp,16
     858:	013d                	addi	sp,sp,15
     85a:	0000                	unimp
     85c:	01b9                	addi	gp,gp,14
     85e:	0000                	unimp
     860:	7009                	c.lui	zero,0xfffe2
     862:	0000                	unimp
     864:	0000                	unimp
     866:	0f00                	addi	s0,sp,912
     868:	047c                	addi	a5,sp,524
     86a:	0000                	unimp
     86c:	0624                	addi	s1,sp,776
     86e:	023c0837          	lui	a6,0x23c0
     872:	0000                	unimp
     874:	0003960b          	0x3960b
     878:	0600                	addi	s0,sp,768
     87a:	0939                	addi	s2,s2,14
     87c:	0069                	c.nop	26
     87e:	0000                	unimp
     880:	0b00                	addi	s0,sp,400
     882:	060a                	slli	a2,a2,0x2
     884:	0000                	unimp
     886:	3a06                	fld	fs4,96(sp)
     888:	6909                	lui	s2,0x2
     88a:	0000                	unimp
     88c:	0400                	addi	s0,sp,512
     88e:	0003a50b          	0x3a50b
     892:	0600                	addi	s0,sp,768
     894:	0069093b          	0x69093b
     898:	0000                	unimp
     89a:	0b08                	addi	a0,sp,400
     89c:	0706                	slli	a4,a4,0x1
     89e:	0000                	unimp
     8a0:	3c06                	fld	fs8,96(sp)
     8a2:	6909                	lui	s2,0x2
     8a4:	0000                	unimp
     8a6:	0c00                	addi	s0,sp,528
     8a8:	00050b0b          	0x50b0b
     8ac:	0600                	addi	s0,sp,768
     8ae:	093d                	addi	s2,s2,15
     8b0:	0069                	c.nop	26
     8b2:	0000                	unimp
     8b4:	0b10                	addi	a2,sp,400
     8b6:	04f1                	addi	s1,s1,28
     8b8:	0000                	unimp
     8ba:	3e06                	fld	ft8,96(sp)
     8bc:	6909                	lui	s2,0x2
     8be:	0000                	unimp
     8c0:	1400                	addi	s0,sp,544
     8c2:	00067b0b          	0x67b0b
     8c6:	0600                	addi	s0,sp,768
     8c8:	0069093f 0b180000 	0xb1800000069093f
     8d0:	0558                	addi	a4,sp,644
     8d2:	0000                	unimp
     8d4:	4006                	0x4006
     8d6:	6909                	lui	s2,0x2
     8d8:	0000                	unimp
     8da:	1c00                	addi	s0,sp,560
     8dc:	0006c80b          	0x6c80b
     8e0:	0600                	addi	s0,sp,768
     8e2:	0941                	addi	s2,s2,16
     8e4:	0069                	c.nop	26
     8e6:	0000                	unimp
     8e8:	0020                	addi	s0,sp,8
     8ea:	b411                	j	2ee <_min_stack-0x512>
     8ec:	08000003          	lb	zero,128(zero) # 80 <_min_stack-0x780>
     8f0:	0601                	addi	a2,a2,0
     8f2:	084a                	slli	a6,a6,0x12
     8f4:	0281                	addi	t0,t0,0
     8f6:	0000                	unimp
     8f8:	00042b0b          	0x42b0b
     8fc:	0600                	addi	s0,sp,768
     8fe:	02810a4b          	fnmsub.d	fs4,ft2,fs0,ft0,rne
     902:	0000                	unimp
     904:	0b00                	addi	s0,sp,400
     906:	031a                	slli	t1,t1,0x6
     908:	0000                	unimp
     90a:	4c06                	lw	s8,64(sp)
     90c:	8109                	srli	a0,a0,0x2
     90e:	0002                	c.slli64	zero
     910:	8000                	0x8000
     912:	2e12                	fld	ft8,256(sp)
     914:	0006                	c.slli	zero,0x1
     916:	0600                	addi	s0,sp,768
     918:	0a4e                	slli	s4,s4,0x13
     91a:	013d                	addi	sp,sp,15
     91c:	0000                	unimp
     91e:	0100                	addi	s0,sp,128
     920:	d912                	sw	tp,176(sp)
     922:	06000003          	lb	zero,96(zero) # 60 <_min_stack-0x7a0>
     926:	0a51                	addi	s4,s4,20
     928:	013d                	addi	sp,sp,15
     92a:	0000                	unimp
     92c:	0104                	addi	s1,sp,128
     92e:	0800                	addi	s0,sp,16
     930:	0129                	addi	sp,sp,10
     932:	0000                	unimp
     934:	0291                	addi	t0,t0,4
     936:	0000                	unimp
     938:	7009                	c.lui	zero,0xfffe2
     93a:	0000                	unimp
     93c:	1f00                	addi	s0,sp,944
     93e:	1100                	addi	s0,sp,160
     940:	0514                	addi	a3,sp,640
     942:	0000                	unimp
     944:	0190                	addi	a2,sp,192
     946:	5d06                	lw	s10,96(sp)
     948:	d408                	sw	a0,40(s0)
     94a:	0002                	c.slli64	zero
     94c:	0b00                	addi	s0,sp,400
     94e:	00000597          	auipc	a1,0x0
     952:	5e06                	lw	t3,96(sp)
     954:	d412                	sw	tp,40(sp)
     956:	0002                	c.slli64	zero
     958:	0000                	unimp
     95a:	0005af0b          	0x5af0b
     95e:	0600                	addi	s0,sp,768
     960:	065f 0069 0000      	0x69065f
     966:	0b04                	addi	s1,sp,400
     968:	0000043f da096106 	0xda0961060000043f
     970:	0002                	c.slli64	zero
     972:	0800                	addi	s0,sp,16
     974:	0003b40b          	0x3b40b
     978:	0600                	addi	s0,sp,768
     97a:	1e62                	slli	t3,t3,0x38
     97c:	023c                	addi	a5,sp,264
     97e:	0000                	unimp
     980:	0088                	addi	a0,sp,64
     982:	040d                	addi	s0,s0,3
     984:	0291                	addi	t0,t0,4
     986:	0000                	unimp
     988:	ea08                	fsw	fa0,16(a2)
     98a:	0002                	c.slli64	zero
     98c:	ea00                	fsw	fs0,16(a2)
     98e:	0002                	c.slli64	zero
     990:	0900                	addi	s0,sp,144
     992:	0070                	addi	a2,sp,12
     994:	0000                	unimp
     996:	001f 040d 02f0      	0x2f0040d001f
     99c:	0000                	unimp
     99e:	05620f13          	addi	t5,tp,86 # 56 <_min_stack-0x7aa>
     9a2:	0000                	unimp
     9a4:	0608                	addi	a0,sp,768
     9a6:	0875                	addi	a6,a6,29
     9a8:	0319                	addi	t1,t1,6
     9aa:	0000                	unimp
     9ac:	0001cc0b          	0x1cc0b
     9b0:	0600                	addi	s0,sp,768
     9b2:	1176                	slli	sp,sp,0x3d
     9b4:	0319                	addi	t1,t1,6
     9b6:	0000                	unimp
     9b8:	0b00                	addi	s0,sp,400
     9ba:	0326                	slli	t1,t1,0x9
     9bc:	0000                	unimp
     9be:	7706                	flw	fa4,96(sp)
     9c0:	6906                	flw	fs2,64(sp)
     9c2:	0000                	unimp
     9c4:	0400                	addi	s0,sp,512
     9c6:	0d00                	addi	s0,sp,656
     9c8:	4104                	lw	s1,0(a0)
     9ca:	0000                	unimp
     9cc:	0f00                	addi	s0,sp,912
     9ce:	0581                	addi	a1,a1,0
     9d0:	0000                	unimp
     9d2:	0668                	addi	a0,sp,780
     9d4:	08b5                	addi	a7,a7,13
     9d6:	0462                	slli	s0,s0,0x18
     9d8:	0000                	unimp
     9da:	5f10                	lw	a2,56(a4)
     9dc:	0070                	addi	a2,sp,12
     9de:	b606                	fsd	ft1,296(sp)
     9e0:	1912                	slli	s2,s2,0x24
     9e2:	00000003          	lb	zero,0(zero) # 0 <_min_stack-0x800>
     9e6:	5f10                	lw	a2,56(a4)
     9e8:	0072                	c.slli	zero,0x1c
     9ea:	b706                	fsd	ft1,424(sp)
     9ec:	00006907          	0x6907
     9f0:	0400                	addi	s0,sp,512
     9f2:	5f10                	lw	a2,56(a4)
     9f4:	b8060077          	0xb8060077
     9f8:	00006907          	0x6907
     9fc:	0800                	addi	s0,sp,16
     9fe:	0003d20b          	0x3d20b
     a02:	0600                	addi	s0,sp,768
     a04:	09b9                	addi	s3,s3,14
     a06:	002c                	addi	a1,sp,8
     a08:	0000                	unimp
     a0a:	0b0c                	addi	a1,sp,400
     a0c:	0498                	addi	a4,sp,576
     a0e:	0000                	unimp
     a10:	ba06                	fsd	ft1,304(sp)
     a12:	2c09                	jal	c24 <_min_stack+0x424>
     a14:	0000                	unimp
     a16:	0e00                	addi	s0,sp,784
     a18:	5f10                	lw	a2,56(a4)
     a1a:	6662                	flw	fa2,24(sp)
     a1c:	0600                	addi	s0,sp,768
     a1e:	02f111bb          	0x2f111bb
     a22:	0000                	unimp
     a24:	0b10                	addi	a2,sp,400
     a26:	0365                	addi	t1,t1,25
     a28:	0000                	unimp
     a2a:	bc06                	fsd	ft1,56(sp)
     a2c:	00006907          	0x6907
     a30:	1800                	addi	s0,sp,48
     a32:	0003c20b          	0x3c20b
     a36:	0600                	addi	s0,sp,768
     a38:	01290ac3          	fmadd.s	fs5,fs2,fs2,ft0,rne
     a3c:	0000                	unimp
     a3e:	0b1c                	addi	a5,sp,400
     a40:	000000bb          	0xbb
     a44:	c506                	sw	ra,136(sp)
     a46:	d41d                	beqz	s0,974 <_min_stack+0x174>
     a48:	0005                	c.nop	1
     a4a:	2000                	fld	fs0,0(s0)
     a4c:	0004ea0b          	0x4ea0b
     a50:	0600                	addi	s0,sp,768
     a52:	05fe1dc7          	0x5fe1dc7
     a56:	0000                	unimp
     a58:	0b24                	addi	s1,sp,408
     a5a:	05fc                	addi	a5,sp,716
     a5c:	0000                	unimp
     a5e:	ca06                	sw	ra,20(sp)
     a60:	220d                	jal	b82 <_min_stack+0x382>
     a62:	0006                	c.slli	zero,0x1
     a64:	2800                	fld	fs0,16(s0)
     a66:	0006e20b          	0x6e20b
     a6a:	0600                	addi	s0,sp,768
     a6c:	063c09cb          	fnmsub.q	fs3,fs8,ft3,ft0,rne
     a70:	0000                	unimp
     a72:	102c                	addi	a1,sp,40
     a74:	755f 0062 ce06      	0xce060062755f
     a7a:	f111                	bnez	a0,97e <_min_stack+0x17e>
     a7c:	0002                	c.slli64	zero
     a7e:	3000                	fld	fs0,32(s0)
     a80:	5f10                	lw	a2,56(a4)
     a82:	7075                	c.lui	zero,0xffffd
     a84:	0600                	addi	s0,sp,768
     a86:	031912cf          	fnmadd.d	ft5,fs2,fa7,ft0,rtz
     a8a:	0000                	unimp
     a8c:	1038                	addi	a4,sp,40
     a8e:	755f 0072 d006      	0xd0060072755f
     a94:	00006907          	0x6907
     a98:	3c00                	fld	fs0,56(s0)
     a9a:	00039f0b          	0x39f0b
     a9e:	0600                	addi	s0,sp,768
     aa0:	064211d3          	fadd.q	ft3,ft4,ft4,rtz
     aa4:	0000                	unimp
     aa6:	0b40                	addi	s0,sp,404
     aa8:	06b5                	addi	a3,a3,13
     aaa:	0000                	unimp
     aac:	d406                	sw	ra,40(sp)
     aae:	5211                	li	tp,-28
     ab0:	0006                	c.slli	zero,0x1
     ab2:	4300                	lw	s0,0(a4)
     ab4:	5f10                	lw	a2,56(a4)
     ab6:	626c                	flw	fa1,68(a2)
     ab8:	0600                	addi	s0,sp,768
     aba:	02f111d7          	0x2f111d7
     abe:	0000                	unimp
     ac0:	0b44                	addi	s1,sp,404
     ac2:	03e8                	addi	a0,sp,460
     ac4:	0000                	unimp
     ac6:	da06                	sw	ra,52(sp)
     ac8:	00006907          	0x6907
     acc:	4c00                	lw	s0,24(s0)
     ace:	0004040b          	0x4040b
     ad2:	0600                	addi	s0,sp,768
     ad4:	008a0adb          	0x8a0adb
     ad8:	0000                	unimp
     ada:	0b50                	addi	a2,sp,404
     adc:	0000033f 8012de06 	0x8012de060000033f
     ae4:	0004                	0x4
     ae6:	5400                	lw	s0,40(s0)
     ae8:	0004dc0b          	0x4dc0b
     aec:	0600                	addi	s0,sp,768
     aee:	0ce2                	slli	s9,s9,0x18
     af0:	011d                	addi	sp,sp,7
     af2:	0000                	unimp
     af4:	0b58                	addi	a4,sp,404
     af6:	0589                	addi	a1,a1,2
     af8:	0000                	unimp
     afa:	e406                	fsw	ft1,8(sp)
     afc:	110e                	slli	sp,sp,0x23
     afe:	0001                	nop
     b00:	5c00                	lw	s0,56(s0)
     b02:	0004e20b          	0x4e20b
     b06:	0600                	addi	s0,sp,768
     b08:	09e5                	addi	s3,s3,25
     b0a:	0069                	c.nop	26
     b0c:	0000                	unimp
     b0e:	0064                	addi	s1,sp,12
     b10:	a214                	fsd	fa3,0(a2)
     b12:	0000                	unimp
     b14:	8000                	0x8000
     b16:	0004                	0x4
     b18:	1500                	addi	s0,sp,672
     b1a:	0480                	addi	s0,sp,576
     b1c:	0000                	unimp
     b1e:	2915                	jal	f52 <_min_stack+0x752>
     b20:	0001                	nop
     b22:	1500                	addi	s0,sp,672
     b24:	0000012b          	0x12b
     b28:	6915                	lui	s2,0x5
     b2a:	0000                	unimp
     b2c:	0000                	unimp
     b2e:	040d                	addi	s0,s0,3
     b30:	0000048b          	0x48b
     b34:	800e                	c.mv	zero,gp
     b36:	0004                	0x4
     b38:	1600                	addi	s0,sp,800
     b3a:	000005e7          	jalr	a1,zero # 0 <_min_stack-0x800>
     b3e:	0428                	addi	a0,sp,520
     b40:	6006                	flw	ft0,64(sp)
     b42:	0802                	c.slli64	a6
     b44:	05d4                	addi	a3,sp,708
     b46:	0000                	unimp
     b48:	00055117          	auipc	sp,0x55
     b4c:	0600                	addi	s0,sp,768
     b4e:	0262                	slli	tp,tp,0x18
     b50:	00006907          	0x6907
     b54:	0000                	unimp
     b56:	0003e117          	auipc	sp,0x3e
     b5a:	0600                	addi	s0,sp,768
     b5c:	ae0b0267          	jalr	tp,-1312(s6)
     b60:	0006                	c.slli	zero,0x1
     b62:	0400                	addi	s0,sp,512
     b64:	00048817          	auipc	a6,0x48
     b68:	0600                	addi	s0,sp,768
     b6a:	ae140267          	jalr	tp,-1311(s0)
     b6e:	0006                	c.slli	zero,0x1
     b70:	0800                	addi	s0,sp,16
     b72:	00045317          	auipc	t1,0x45
     b76:	0600                	addi	s0,sp,768
     b78:	ae1e0267          	jalr	tp,-1311(t3) # 19ae1 <_stack_len+0x18ae1>
     b7c:	0006                	c.slli	zero,0x1
     b7e:	0c00                	addi	s0,sp,528
     b80:	0005aa17          	auipc	s4,0x5a
     b84:	0600                	addi	s0,sp,768
     b86:	0269                	addi	tp,tp,26
     b88:	6908                	flw	fa0,16(a0)
     b8a:	0000                	unimp
     b8c:	1000                	addi	s0,sp,32
     b8e:	00033417          	auipc	s0,0x33
     b92:	0600                	addi	s0,sp,768
     b94:	026a                	slli	tp,tp,0x1a
     b96:	ae08                	fsd	fa0,24(a2)
     b98:	0008                	0x8
     b9a:	1400                	addi	s0,sp,544
     b9c:	0005c617          	auipc	a2,0x5c
     ba0:	0600                	addi	s0,sp,768
     ba2:	026d                	addi	tp,tp,27
     ba4:	00006907          	0x6907
     ba8:	3000                	fld	fs0,32(s0)
     baa:	0005b417          	auipc	s0,0x5b
     bae:	0600                	addi	s0,sp,768
     bb0:	026e                	slli	tp,tp,0x1b
     bb2:	c316                	sw	t0,132(sp)
     bb4:	0008                	0x8
     bb6:	3400                	fld	fs0,40(s0)
     bb8:	00051c17          	auipc	s8,0x51
     bbc:	0600                	addi	s0,sp,768
     bbe:	0270                	addi	a2,sp,268
     bc0:	00006907          	0x6907
     bc4:	3800                	fld	fs0,48(s0)
     bc6:	0005bc17          	auipc	s8,0x5b
     bca:	0600                	addi	s0,sp,768
     bcc:	0272                	slli	tp,tp,0x1c
     bce:	d40a                	sw	sp,40(sp)
     bd0:	0008                	0x8
     bd2:	3c00                	fld	fs0,56(s0)
     bd4:	0004c717          	auipc	a4,0x4c
     bd8:	0600                	addi	s0,sp,768
     bda:	0275                	addi	tp,tp,29
     bdc:	0001a313          	slti	t1,gp,0
     be0:	4000                	lw	s0,0(s0)
     be2:	00047217          	auipc	tp,0x47
     be6:	0600                	addi	s0,sp,768
     be8:	0276                	slli	tp,tp,0x1d
     bea:	00006907          	0x6907
     bee:	4400                	lw	s0,8(s0)
     bf0:	0006fc17          	auipc	s8,0x6f
     bf4:	0600                	addi	s0,sp,768
     bf6:	a3130277          	0xa3130277
     bfa:	0001                	nop
     bfc:	4800                	lw	s0,16(s0)
     bfe:	00052e17          	auipc	t3,0x52
     c02:	0600                	addi	s0,sp,768
     c04:	0278                	addi	a4,sp,268
     c06:	da14                	sw	a3,48(a2)
     c08:	0008                	0x8
     c0a:	4c00                	lw	s0,24(s0)
     c0c:	00049017          	auipc	zero,0x49
     c10:	0600                	addi	s0,sp,768
     c12:	6907027b          	0x6907027b
     c16:	0000                	unimp
     c18:	5000                	lw	s0,32(s0)
     c1a:	0003fc17          	auipc	s8,0x3f
     c1e:	0600                	addi	s0,sp,768
     c20:	027c                	addi	a5,sp,268
     c22:	2b09                	jal	1134 <_stack_len+0x134>
     c24:	0001                	nop
     c26:	5400                	lw	s0,40(s0)
     c28:	00054a17          	auipc	s4,0x54
     c2c:	0600                	addi	s0,sp,768
     c2e:	029f 8907 0008      	0x88907029f
     c34:	5800                	lw	s0,48(s0)
     c36:	1418                	addi	a4,sp,544
     c38:	0005                	c.nop	1
     c3a:	0600                	addi	s0,sp,768
     c3c:	d41302a3          	sb	ra,-699(t1) # 458b7 <tohost+0x258af>
     c40:	0002                	c.slli64	zero
     c42:	4800                	lw	s0,16(s0)
     c44:	1801                	addi	a6,a6,-32
     c46:	04a5                	addi	s1,s1,9
     c48:	0000                	unimp
     c4a:	a406                	fsd	ft1,8(sp)
     c4c:	1202                	slli	tp,tp,0x20
     c4e:	0291                	addi	t0,t0,4
     c50:	0000                	unimp
     c52:	014c                	addi	a1,sp,132
     c54:	ab18                	fsd	fa4,16(a4)
     c56:	0006                	c.slli	zero,0x1
     c58:	0600                	addi	s0,sp,768
     c5a:	02a8                	addi	a0,sp,328
     c5c:	eb0c                	fsw	fa1,16(a4)
     c5e:	0008                	0x8
     c60:	dc00                	sw	s0,56(s0)
     c62:	1802                	slli	a6,a6,0x20
     c64:	03ca                	slli	t2,t2,0x12
     c66:	0000                	unimp
     c68:	ad06                	fsd	ft1,152(sp)
     c6a:	1002                	c.slli	zero,0x20
     c6c:	0000066f          	jal	a2,c6c <_min_stack+0x46c>
     c70:	02e0                	addi	s0,sp,332
     c72:	af18                	fsd	fa4,24(a4)
     c74:	06000003          	lb	zero,96(zero) # 60 <_min_stack-0x7a0>
     c78:	f70a02af          	0xf70a02af
     c7c:	0008                	0x8
     c7e:	ec00                	fsw	fs0,24(s0)
     c80:	0002                	c.slli64	zero
     c82:	040d                	addi	s0,s0,3
     c84:	0462                	slli	s0,s0,0x18
     c86:	0000                	unimp
     c88:	a214                	fsd	fa3,0(a2)
     c8a:	0000                	unimp
     c8c:	f800                	fsw	fs0,48(s0)
     c8e:	0005                	c.nop	1
     c90:	1500                	addi	s0,sp,672
     c92:	0480                	addi	s0,sp,576
     c94:	0000                	unimp
     c96:	2915                	jal	10ca <_stack_len+0xca>
     c98:	0001                	nop
     c9a:	1500                	addi	s0,sp,672
     c9c:	05f8                	addi	a4,sp,716
     c9e:	0000                	unimp
     ca0:	6915                	lui	s2,0x5
     ca2:	0000                	unimp
     ca4:	0000                	unimp
     ca6:	040d                	addi	s0,s0,3
     ca8:	0138                	addi	a4,sp,136
     caa:	0000                	unimp
     cac:	040d                	addi	s0,s0,3
     cae:	05da                	slli	a1,a1,0x16
     cb0:	0000                	unimp
     cb2:	9614                	0x9614
     cb4:	0000                	unimp
     cb6:	2200                	fld	fs0,0(a2)
     cb8:	0006                	c.slli	zero,0x1
     cba:	1500                	addi	s0,sp,672
     cbc:	0480                	addi	s0,sp,576
     cbe:	0000                	unimp
     cc0:	2915                	jal	10f4 <_stack_len+0xf4>
     cc2:	0001                	nop
     cc4:	1500                	addi	s0,sp,672
     cc6:	0096                	slli	ra,ra,0x5
     cc8:	0000                	unimp
     cca:	6915                	lui	s2,0x5
     ccc:	0000                	unimp
     cce:	0000                	unimp
     cd0:	040d                	addi	s0,s0,3
     cd2:	0604                	addi	s1,sp,768
     cd4:	0000                	unimp
     cd6:	6914                	flw	fa3,16(a0)
     cd8:	0000                	unimp
     cda:	3c00                	fld	fs0,56(s0)
     cdc:	0006                	c.slli	zero,0x1
     cde:	1500                	addi	s0,sp,672
     ce0:	0480                	addi	s0,sp,576
     ce2:	0000                	unimp
     ce4:	2915                	jal	1118 <_stack_len+0x118>
     ce6:	0001                	nop
     ce8:	0000                	unimp
     cea:	040d                	addi	s0,s0,3
     cec:	0628                	addi	a0,sp,776
     cee:	0000                	unimp
     cf0:	4108                	lw	a0,0(a0)
     cf2:	0000                	unimp
     cf4:	5200                	lw	s0,32(a2)
     cf6:	0006                	c.slli	zero,0x1
     cf8:	0900                	addi	s0,sp,144
     cfa:	0070                	addi	a2,sp,12
     cfc:	0000                	unimp
     cfe:	0002                	c.slli64	zero
     d00:	4108                	lw	a0,0(a0)
     d02:	0000                	unimp
     d04:	6200                	flw	fs0,0(a2)
     d06:	0006                	c.slli	zero,0x1
     d08:	0900                	addi	s0,sp,144
     d0a:	0070                	addi	a2,sp,12
     d0c:	0000                	unimp
     d0e:	0000                	unimp
     d10:	6f05                	lui	t5,0x1
     d12:	0005                	c.nop	1
     d14:	0600                	addi	s0,sp,768
     d16:	011f 1f1a 0003      	0x31f1a011f
     d1c:	1900                	addi	s0,sp,176
     d1e:	0685                	addi	a3,a3,1
     d20:	0000                	unimp
     d22:	060c                	addi	a1,sp,768
     d24:	a8080123          	sb	zero,-1406(a6) # 485e6 <tohost+0x285de>
     d28:	0006                	c.slli	zero,0x1
     d2a:	1700                	addi	s0,sp,928
     d2c:	00000597          	auipc	a1,0x0
     d30:	2506                	fld	fa0,64(sp)
     d32:	1101                	addi	sp,sp,-32
     d34:	06a8                	addi	a0,sp,840
     d36:	0000                	unimp
     d38:	1700                	addi	s0,sp,928
     d3a:	049e                	slli	s1,s1,0x7
     d3c:	0000                	unimp
     d3e:	2606                	fld	fa2,64(sp)
     d40:	0701                	addi	a4,a4,0
     d42:	0069                	c.nop	26
     d44:	0000                	unimp
     d46:	1704                	addi	s1,sp,928
     d48:	0569                	addi	a0,a0,26
     d4a:	0000                	unimp
     d4c:	2706                	fld	fa4,64(sp)
     d4e:	0b01                	addi	s6,s6,0
     d50:	06ae                	slli	a3,a3,0xb
     d52:	0000                	unimp
     d54:	0008                	0x8
     d56:	040d                	addi	s0,s0,3
     d58:	0000066f          	jal	a2,d58 <_min_stack+0x558>
     d5c:	040d                	addi	s0,s0,3
     d5e:	0662                	slli	a2,a2,0x18
     d60:	0000                	unimp
     d62:	2c19                	jal	f78 <_min_stack+0x778>
     d64:	0e000003          	lb	zero,224(zero) # e0 <_min_stack-0x720>
     d68:	3f06                	fld	ft10,96(sp)
     d6a:	0801                	addi	a6,a6,0
     d6c:	06ed                	addi	a3,a3,27
     d6e:	0000                	unimp
     d70:	0005ee17          	auipc	t3,0x5e
     d74:	0600                	addi	s0,sp,768
     d76:	0140                	addi	s0,sp,132
     d78:	ed12                	fsw	ft4,152(sp)
     d7a:	0006                	c.slli	zero,0x1
     d7c:	0000                	unimp
     d7e:	00061317          	auipc	t1,0x61
     d82:	0600                	addi	s0,sp,768
     d84:	0141                	addi	sp,sp,16
     d86:	ed12                	fsw	ft4,152(sp)
     d88:	0006                	c.slli	zero,0x1
     d8a:	0600                	addi	s0,sp,768
     d8c:	00063717          	auipc	a4,0x63
     d90:	0600                	addi	s0,sp,768
     d92:	0142                	slli	sp,sp,0x10
     d94:	4812                	lw	a6,4(sp)
     d96:	0000                	unimp
     d98:	0c00                	addi	s0,sp,528
     d9a:	0800                	addi	s0,sp,16
     d9c:	0048                	addi	a0,sp,4
     d9e:	0000                	unimp
     da0:	06fd                	addi	a3,a3,31
     da2:	0000                	unimp
     da4:	7009                	c.lui	zero,0xfffe2
     da6:	0000                	unimp
     da8:	0200                	addi	s0,sp,256
     daa:	1a00                	addi	s0,sp,304
     dac:	06d0                	addi	a2,sp,836
     dae:	0280                	addi	s0,sp,320
     db0:	00081207          	0x81207
     db4:	1700                	addi	s0,sp,928
     db6:	0669                	addi	a2,a2,26
     db8:	0000                	unimp
     dba:	8206                	mv	tp,ra
     dbc:	1802                	slli	a6,a6,0x20
     dbe:	0070                	addi	a2,sp,12
     dc0:	0000                	unimp
     dc2:	1700                	addi	s0,sp,928
     dc4:	0619                	addi	a2,a2,6
     dc6:	0000                	unimp
     dc8:	8306                	mv	t1,ra
     dca:	1202                	slli	tp,tp,0x20
     dcc:	0000012b          	0x12b
     dd0:	1704                	addi	s1,sp,928
     dd2:	04ba                	slli	s1,s1,0xe
     dd4:	0000                	unimp
     dd6:	8406                	mv	s0,ra
     dd8:	1002                	c.slli	zero,0x20
     dda:	0812                	slli	a6,a6,0x4
     ddc:	0000                	unimp
     dde:	1708                	addi	a0,sp,928
     de0:	000006d3          	fadd.s	fa3,ft0,ft0,rne
     de4:	8506                	mv	a0,ra
     de6:	1702                	slli	a4,a4,0x20
     de8:	01b9                	addi	gp,gp,14
     dea:	0000                	unimp
     dec:	1724                	addi	s1,sp,936
     dee:	00000463          	beqz	zero,df6 <_min_stack+0x5f6>
     df2:	8606                	mv	a2,ra
     df4:	0f02                	c.slli64	t5
     df6:	0069                	c.nop	26
     df8:	0000                	unimp
     dfa:	1748                	addi	a0,sp,932
     dfc:	0592                	slli	a1,a1,0x4
     dfe:	0000                	unimp
     e00:	8706                	mv	a4,ra
     e02:	2c02                	fld	fs8,0(sp)
     e04:	0062                	c.slli	zero,0x18
     e06:	0000                	unimp
     e08:	1750                	addi	a2,sp,932
     e0a:	06e9                	addi	a3,a3,26
     e0c:	0000                	unimp
     e0e:	8806                	mv	a6,ra
     e10:	1a02                	slli	s4,s4,0x20
     e12:	06b4                	addi	a3,sp,840
     e14:	0000                	unimp
     e16:	1758                	addi	a4,sp,932
     e18:	059d                	addi	a1,a1,7
     e1a:	0000                	unimp
     e1c:	8906                	mv	s2,ra
     e1e:	1602                	slli	a2,a2,0x20
     e20:	0111                	addi	sp,sp,4
     e22:	0000                	unimp
     e24:	1768                	addi	a0,sp,940
     e26:	06ee                	slli	a3,a3,0x1b
     e28:	0000                	unimp
     e2a:	8a06                	mv	s4,ra
     e2c:	1602                	slli	a2,a2,0x20
     e2e:	0111                	addi	sp,sp,4
     e30:	0000                	unimp
     e32:	1770                	addi	a2,sp,940
     e34:	0388                	addi	a0,sp,448
     e36:	0000                	unimp
     e38:	8b06                	mv	s6,ra
     e3a:	1602                	slli	a2,a2,0x20
     e3c:	0111                	addi	sp,sp,4
     e3e:	0000                	unimp
     e40:	1778                	addi	a4,sp,940
     e42:	0694                	addi	a3,sp,832
     e44:	0000                	unimp
     e46:	8c06                	mv	s8,ra
     e48:	1002                	c.slli	zero,0x20
     e4a:	0822                	slli	a6,a6,0x8
     e4c:	0000                	unimp
     e4e:	1780                	addi	s0,sp,992
     e50:	04ae                	slli	s1,s1,0xb
     e52:	0000                	unimp
     e54:	8d06                	mv	s10,ra
     e56:	1002                	c.slli	zero,0x20
     e58:	0832                	slli	a6,a6,0xc
     e5a:	0000                	unimp
     e5c:	1788                	addi	a0,sp,992
     e5e:	0644                	addi	s1,sp,772
     e60:	0000                	unimp
     e62:	8e06                	mv	t3,ra
     e64:	0f02                	c.slli64	t5
     e66:	0069                	c.nop	26
     e68:	0000                	unimp
     e6a:	17a0                	addi	s0,sp,1000
     e6c:	041d                	addi	s0,s0,7
     e6e:	0000                	unimp
     e70:	8f06                	mv	t5,ra
     e72:	1602                	slli	a2,a2,0x20
     e74:	0111                	addi	sp,sp,4
     e76:	0000                	unimp
     e78:	17a4                	addi	s1,sp,1000
     e7a:	0379                	addi	t1,t1,30
     e7c:	0000                	unimp
     e7e:	9006                	c.add	zero,ra
     e80:	1602                	slli	a2,a2,0x20
     e82:	0111                	addi	sp,sp,4
     e84:	0000                	unimp
     e86:	17ac                	addi	a1,sp,1000
     e88:	040c                	addi	a1,sp,512
     e8a:	0000                	unimp
     e8c:	9106                	add	sp,sp,ra
     e8e:	1602                	slli	a2,a2,0x20
     e90:	0111                	addi	sp,sp,4
     e92:	0000                	unimp
     e94:	17b4                	addi	a3,sp,1000
     e96:	0345                	addi	t1,t1,17
     e98:	0000                	unimp
     e9a:	9206                	add	tp,tp,ra
     e9c:	1602                	slli	a2,a2,0x20
     e9e:	0111                	addi	sp,sp,4
     ea0:	0000                	unimp
     ea2:	17bc                	addi	a5,sp,1000
     ea4:	0354                	addi	a3,sp,388
     ea6:	0000                	unimp
     ea8:	9306                	add	t1,t1,ra
     eaa:	1602                	slli	a2,a2,0x20
     eac:	0111                	addi	sp,sp,4
     eae:	0000                	unimp
     eb0:	17c4                	addi	s1,sp,996
     eb2:	0000054f          	fnmadd.s	fa0,ft0,ft0,ft0,rne
     eb6:	9406                	add	s0,s0,ra
     eb8:	0802                	c.slli64	a6
     eba:	0069                	c.nop	26
     ebc:	0000                	unimp
     ebe:	00cc                	addi	a1,sp,68
     ec0:	3108                	fld	fa0,32(a0)
     ec2:	0001                	nop
     ec4:	2200                	fld	fs0,0(a2)
     ec6:	0008                	0x8
     ec8:	0900                	addi	s0,sp,144
     eca:	0070                	addi	a2,sp,12
     ecc:	0000                	unimp
     ece:	0019                	c.nop	6
     ed0:	3108                	fld	fa0,32(a0)
     ed2:	0001                	nop
     ed4:	3200                	fld	fs0,32(a2)
     ed6:	0008                	0x8
     ed8:	0900                	addi	s0,sp,144
     eda:	0070                	addi	a2,sp,12
     edc:	0000                	unimp
     ede:	31080007          	0x31080007
     ee2:	0001                	nop
     ee4:	4200                	lw	s0,0(a2)
     ee6:	0008                	0x8
     ee8:	0900                	addi	s0,sp,144
     eea:	0070                	addi	a2,sp,12
     eec:	0000                	unimp
     eee:	f01a0017          	auipc	zero,0xf01a0
     ef2:	9906                	add	s2,s2,ra
     ef4:	0702                	c.slli64	a4
     ef6:	0869                	addi	a6,a6,26
     ef8:	0000                	unimp
     efa:	00050417          	auipc	s0,0x50
     efe:	0600                	addi	s0,sp,768
     f00:	029c                	addi	a5,sp,320
     f02:	0008691b          	0x8691b
     f06:	0000                	unimp
     f08:	0004fb17          	auipc	s6,0x4f
     f0c:	0600                	addi	s0,sp,768
     f0e:	029d                	addi	t0,t0,7
     f10:	7918                	flw	fa4,48(a0)
     f12:	0008                	0x8
     f14:	7800                	flw	fs0,48(s0)
     f16:	0800                	addi	s0,sp,16
     f18:	0319                	addi	t1,t1,6
     f1a:	0000                	unimp
     f1c:	0879                	addi	a6,a6,30
     f1e:	0000                	unimp
     f20:	7009                	c.lui	zero,0xfffe2
     f22:	0000                	unimp
     f24:	1d00                	addi	s0,sp,688
     f26:	0800                	addi	s0,sp,16
     f28:	0070                	addi	a2,sp,12
     f2a:	0000                	unimp
     f2c:	0889                	addi	a7,a7,2
     f2e:	0000                	unimp
     f30:	7009                	c.lui	zero,0xfffe2
     f32:	0000                	unimp
     f34:	1d00                	addi	s0,sp,688
     f36:	1b00                	addi	s0,sp,432
     f38:	06f0                	addi	a2,sp,844
     f3a:	027e                	slli	tp,tp,0x1f
     f3c:	0008ae03          	lw	t3,0(a7)
     f40:	1c00                	addi	s0,sp,560
     f42:	000005e7          	jalr	a1,zero # 0 <_min_stack-0x800>
     f46:	9506                	add	a0,a0,ra
     f48:	0b02                	c.slli64	s6
     f4a:	06fd                	addi	a3,a3,31
     f4c:	0000                	unimp
     f4e:	bb1c                	fsd	fa5,48(a4)
     f50:	0006                	c.slli	zero,0x1
     f52:	0600                	addi	s0,sp,768
     f54:	029e                	slli	t0,t0,0x7
     f56:	0008420b          	0x8420b
     f5a:	0000                	unimp
     f5c:	3108                	fld	fa0,32(a0)
     f5e:	0001                	nop
     f60:	be00                	fsd	fs0,56(a2)
     f62:	0008                	0x8
     f64:	0900                	addi	s0,sp,144
     f66:	0070                	addi	a2,sp,12
     f68:	0000                	unimp
     f6a:	0018                	0x18
     f6c:	6e1d                	lui	t3,0x7
     f6e:	0d000003          	lb	zero,208(zero) # d0 <_min_stack-0x730>
     f72:	be04                	fsd	fs1,56(a2)
     f74:	0008                	0x8
     f76:	1e00                	addi	s0,sp,816
     f78:	08d4                	addi	a3,sp,84
     f7a:	0000                	unimp
     f7c:	8015                	srli	s0,s0,0x5
     f7e:	0004                	0x4
     f80:	0000                	unimp
     f82:	040d                	addi	s0,s0,3
     f84:	08c9                	addi	a7,a7,18
     f86:	0000                	unimp
     f88:	040d                	addi	s0,s0,3
     f8a:	000001a3          	sb	zero,3(zero) # 3 <_min_stack-0x7fd>
     f8e:	eb1e                	fsw	ft7,148(sp)
     f90:	0008                	0x8
     f92:	1500                	addi	s0,sp,672
     f94:	0069                	c.nop	26
     f96:	0000                	unimp
     f98:	0d00                	addi	s0,sp,656
     f9a:	f104                	fsw	fs1,32(a0)
     f9c:	0008                	0x8
     f9e:	0d00                	addi	s0,sp,656
     fa0:	e004                	fsw	fs1,0(s0)
     fa2:	0008                	0x8
     fa4:	0800                	addi	s0,sp,16
     fa6:	0662                	slli	a2,a2,0x18
     fa8:	0000                	unimp
     faa:	00000907          	0x907
     fae:	7009                	c.lui	zero,0xfffe2
     fb0:	0000                	unimp
     fb2:	0200                	addi	s0,sp,256
     fb4:	1f00                	addi	s0,sp,944
     fb6:	0658                	addi	a4,sp,772
     fb8:	0000                	unimp
     fba:	2e06                	fld	ft8,64(sp)
     fbc:	04801703          	lh	a4,72(zero) # 48 <_min_stack-0x7b8>
     fc0:	0000                	unimp
     fc2:	511f 0006 0600      	0x6000006511f
     fc8:	861d032f          	0x861d032f
     fcc:	0004                	0x4
     fce:	2000                	fld	fs0,0(s0)
     fd0:	0701                	addi	a4,a4,0
     fd2:	0000                	unimp
     fd4:	1301                	addi	t1,t1,-32
     fd6:	6905                	lui	s2,0x1
     fd8:	0000                	unimp
     fda:	a800                	fsd	fs0,16(s0)
     fdc:	0006                	c.slli	zero,0x1
     fde:	2010                	fld	fa2,0(s0)
     fe0:	0000                	unimp
     fe2:	0100                	addi	s0,sp,128
     fe4:	589c                	lw	a5,48(s1)
     fe6:	0009                	c.nop	2
     fe8:	2100                	fld	fs0,0(a0)
     fea:	000006c3          	fmadd.s	fa3,ft0,ft0,ft0,rne
     fee:	1301                	addi	t1,t1,-32
     ff0:	690e                	flw	fs2,192(sp)
     ff2:	0000                	unimp
     ff4:	0100                	addi	s0,sp,128
     ff6:	215a                	fld	ft2,400(sp)
     ff8:	0664                	addi	s1,sp,780
     ffa:	0000                	unimp
     ffc:	1301                	addi	t1,t1,-32
     ffe:	0009581b          	0x9581b
    1002:	0100                	addi	s0,sp,128
    1004:	040d005b          	0x40d005b
    1008:	0000012b          	0x12b
    100c:	f122                	fsw	fs0,160(sp)
    100e:	01000003          	lb	zero,16(zero) # 10 <_min_stack-0x7f0>
    1012:	0608                	addi	a0,sp,768
    1014:	05cc                	addi	a1,sp,708
    1016:	1000                	addi	s0,sp,32
    1018:	0004                	0x4
    101a:	0000                	unimp
    101c:	9c01                	0x9c01
    101e:	0996                	slli	s3,s3,0x5
    1020:	0000                	unimp
    1022:	67736d23          	0x67736d23
    1026:	0100                	addi	s0,sp,128
    1028:	1c08                	addi	a0,sp,560
    102a:	05f8                	addi	a4,sp,716
    102c:	0000                	unimp
    102e:	01a8                	addi	a0,sp,200
    1030:	0000                	unimp
    1032:	d024                	sw	s1,96(s0)
    1034:	0005                	c.nop	1
    1036:	9610                	0x9610
    1038:	0009                	c.nop	2
    103a:	2500                	fld	fs0,8(a0)
    103c:	5a01                	li	s4,-32
    103e:	5a01f303          	0x5a01f303
    1042:	0000                	unimp
    1044:	d826                	sw	s1,48(sp)
    1046:	0002                	c.slli64	zero
    1048:	d800                	sw	s0,48(s0)
    104a:	0002                	c.slli64	zero
    104c:	0700                	addi	s0,sp,896
    104e:	051f 1e00 0000      	0x1e00051f
    1054:	0200                	addi	s0,sp,256
    1056:	4300                	lw	s0,0(a4)
    1058:	0005                	c.nop	1
    105a:	0400                	addi	s0,sp,512
    105c:	2901                	jal	146c <_stack_len+0x46c>
    105e:	0009                	c.nop	2
    1060:	8800                	0x8800
    1062:	0000                	unimp
    1064:	1000                	addi	s0,sp,32
    1066:	d2000007          	0xd2000007
    106a:	0001                	nop
    106c:	4f00                	lw	s0,24(a4)
    106e:	01000007          	0x1000007
    1072:	80              	Address 0x0000000000001072 is out of bounds.


Disassembly of section .debug_abbrev:

00000000 <.debug_abbrev>:
   0:	1101                	addi	sp,sp,-32
   2:	2501                	jal	602 <_min_stack-0x1fe>
   4:	130e                	slli	t1,t1,0x23
   6:	1b0e030b          	0x1b0e030b
   a:	110e                	slli	sp,sp,0x23
   c:	1201                	addi	tp,tp,-32
   e:	1006                	c.slli	zero,0x21
  10:	02000017          	auipc	zero,0x2000
  14:	0024                	addi	s1,sp,8
  16:	0b3e0b0b          	0xb3e0b0b
  1a:	00000e03          	lb	t3,0(zero) # 0 <_min_stack-0x800>
  1e:	03001603          	lh	a2,48(zero) # 30 <_min_stack-0x7d0>
  22:	3a0e                	fld	fs4,224(sp)
  24:	390b3b0b          	0x390b3b0b
  28:	0013490b          	0x13490b
  2c:	0400                	addi	s0,sp,512
  2e:	0035                	c.nop	13
  30:	1349                	addi	t1,t1,-14
  32:	0000                	unimp
  34:	2405                	jal	254 <_min_stack-0x5ac>
  36:	0b00                	addi	s0,sp,400
  38:	030b3e0b          	0x30b3e0b
  3c:	0008                	0x8
  3e:	0600                	addi	s0,sp,768
  40:	0e030113          	addi	sp,t1,224 # 61e5e <tohost+0x41e56>
  44:	0b3a0b0b          	0xb3a0b0b
  48:	0b390b3b          	0xb390b3b
  4c:	1301                	addi	t1,t1,-32
  4e:	0000                	unimp
  50:	03000d07          	0x3000d07
  54:	3a08                	fld	fa0,48(a2)
  56:	390b3b0b          	0x390b3b0b
  5a:	3813490b          	0x3813490b
  5e:	0800000b          	0x800000b
  62:	000d                	c.nop	3
  64:	0b3a0e03          	lb	t3,179(s4) # 54cdb <tohost+0x34cd3>
  68:	0b390b3b          	0xb390b3b
  6c:	1349                	addi	t1,t1,-14
  6e:	0b38                	addi	a4,sp,408
  70:	0000                	unimp
  72:	1309                	addi	t1,t1,-30
  74:	0301                	addi	t1,t1,0
  76:	0b0e                	slli	s6,s6,0x3
  78:	3a05                	jal	fffff9a8 <fromhost+0xefffd998>
  7a:	390b3b0b          	0x390b3b0b
  7e:	0013010b          	0x13010b
  82:	0a00                	addi	s0,sp,272
  84:	000d                	c.nop	3
  86:	0b3a0e03          	lb	t3,179(s4)
  8a:	0b390b3b          	0xb390b3b
  8e:	1349                	addi	t1,t1,-14
  90:	0538                	addi	a4,sp,648
  92:	0000                	unimp
  94:	4901010b          	0x4901010b
  98:	00130113          	addi	sp,t1,1
  9c:	0c00                	addi	s0,sp,528
  9e:	0021                	c.nop	8
  a0:	1349                	addi	t1,t1,-14
  a2:	00000b2f          	0xb2f
  a6:	340d                	jal	fffffac8 <fromhost+0xefffdab8>
  a8:	0300                	addi	s0,sp,384
  aa:	3a0e                	fld	fs4,224(sp)
  ac:	390b3b0b          	0x390b3b0b
  b0:	3f13490b          	0x3f13490b
  b4:	0219                	addi	tp,tp,6
  b6:	0018                	0x18
  b8:	0e00                	addi	s0,sp,784
  ba:	012e                	slli	sp,sp,0xb
  bc:	0e03193f 0b3b0b3a 	0xb3b0b3a0e03193f
  c4:	0b39                	addi	s6,s6,14
  c6:	01111927          	0x1111927
  ca:	0612                	slli	a2,a2,0x4
  cc:	1840                	addi	s0,sp,52
  ce:	01194297          	auipc	t0,0x1194
  d2:	0f000013          	li	zero,240
  d6:	8289                	srli	a3,a3,0x2
  d8:	0101                	addi	sp,sp,0
  da:	0111                	addi	sp,sp,4
  dc:	1331                	addi	t1,t1,-20
  de:	0000                	unimp
  e0:	8a10                	0x8a10
  e2:	0182                	c.slli64	gp
  e4:	0200                	addi	s0,sp,256
  e6:	9118                	0x9118
  e8:	1842                	slli	a6,a6,0x30
  ea:	0000                	unimp
  ec:	1d11                	addi	s10,s10,-28
  ee:	3101                	jal	fffffcee <fromhost+0xefffdcde>
  f0:	55015213          	0x55015213
  f4:	590b5817          	auipc	a6,0x590b5
  f8:	000b570b          	0xb570b
  fc:	1200                	addi	s0,sp,288
  fe:	0005                	c.nop	1
 100:	1331                	addi	t1,t1,-20
 102:	1702                	slli	a4,a4,0x20
 104:	0000                	unimp
 106:	55010b13          	addi	s6,sp,1360 # 3f0a6 <tohost+0x1f09e>
 10a:	14000017          	auipc	zero,0x14000
 10e:	0034                	addi	a3,sp,8
 110:	1331                	addi	t1,t1,-20
 112:	0000                	unimp
 114:	8915                	andi	a0,a0,5
 116:	0182                	c.slli64	gp
 118:	1100                	addi	s0,sp,160
 11a:	3101                	jal	fffffd1a <fromhost+0xefffdd0a>
 11c:	16000013          	li	zero,352
 120:	002e                	c.slli	zero,0xb
 122:	0e03193f 0b3b0b3a 	0xb3b0b3a0e03193f
 12a:	0b39                	addi	s6,s6,14
 12c:	13491927          	0x13491927
 130:	0111                	addi	sp,sp,4
 132:	0612                	slli	a2,a2,0x4
 134:	1840                	addi	s0,sp,52
 136:	00194297          	auipc	t0,0x194
 13a:	1700                	addi	s0,sp,928
 13c:	0005                	c.nop	1
 13e:	0b3a0e03          	lb	t3,179(s4)
 142:	0b390b3b          	0xb390b3b
 146:	1349                	addi	t1,t1,-14
 148:	1802                	slli	a6,a6,0x20
 14a:	0000                	unimp
 14c:	2e18                	fld	fa4,24(a2)
 14e:	3f01                	jal	5e <_min_stack-0x7a2>
 150:	0319                	addi	t1,t1,6
 152:	3a0e                	fld	fs4,224(sp)
 154:	390b3b0b          	0x390b3b0b
 158:	4919270b          	0x4919270b
 15c:	12011113          	0x12011113
 160:	4006                	0x4006
 162:	9718                	0x9718
 164:	1942                	slli	s2,s2,0x30
 166:	1301                	addi	t1,t1,-32
 168:	0000                	unimp
 16a:	3419                	jal	fffffb70 <fromhost+0xefffdb60>
 16c:	0300                	addi	s0,sp,384
 16e:	3a0e                	fld	fs4,224(sp)
 170:	390b3b0b          	0x390b3b0b
 174:	0213490b          	0x213490b
 178:	0018                	0x18
 17a:	1a00                	addi	s0,sp,304
 17c:	0034                	addi	a3,sp,8
 17e:	0b3a0e03          	lb	t3,179(s4)
 182:	0b390b3b          	0xb390b3b
 186:	1349                	addi	t1,t1,-14
 188:	0000                	unimp
 18a:	3f002e1b          	0x3f002e1b
 18e:	0319                	addi	t1,t1,6
 190:	3a0e                	fld	fs4,224(sp)
 192:	390b3b0b          	0x390b3b0b
 196:	1119270b          	0x1119270b
 19a:	1201                	addi	tp,tp,-32
 19c:	4006                	0x4006
 19e:	9718                	0x9718
 1a0:	1942                	slli	s2,s2,0x30
 1a2:	0000                	unimp
 1a4:	051c                	addi	a5,sp,640
 1a6:	0300                	addi	s0,sp,384
 1a8:	3a0e                	fld	fs4,224(sp)
 1aa:	390b3b0b          	0x390b3b0b
 1ae:	0213490b          	0x213490b
 1b2:	1d000017          	auipc	zero,0x1d000
 1b6:	011d                	addi	sp,sp,7
 1b8:	1331                	addi	t1,t1,-20
 1ba:	0111                	addi	sp,sp,4
 1bc:	0612                	slli	a2,a2,0x4
 1be:	0b58                	addi	a4,sp,404
 1c0:	0b59                	addi	s6,s6,22
 1c2:	00000b57          	0xb57
 1c6:	2e1e                	fld	ft8,448(sp)
 1c8:	0301                	addi	t1,t1,0
 1ca:	3a0e                	fld	fs4,224(sp)
 1cc:	390b3b0b          	0x390b3b0b
 1d0:	2019270b          	0x2019270b
 1d4:	0013010b          	0x13010b
 1d8:	1f00                	addi	s0,sp,944
 1da:	0005                	c.nop	1
 1dc:	0b3a0e03          	lb	t3,179(s4)
 1e0:	0b390b3b          	0xb390b3b
 1e4:	1349                	addi	t1,t1,-14
 1e6:	0000                	unimp
 1e8:	1d20                	addi	s0,sp,696
 1ea:	3101                	jal	fffffdea <fromhost+0xefffddda>
 1ec:	12011113          	0x12011113
 1f0:	5806                	lw	a6,96(sp)
 1f2:	570b590b          	0x570b590b
 1f6:	0013010b          	0x13010b
 1fa:	2100                	fld	fs0,0(a0)
 1fc:	001d                	c.nop	7
 1fe:	1331                	addi	t1,t1,-20
 200:	0111                	addi	sp,sp,4
 202:	0612                	slli	a2,a2,0x4
 204:	0b58                	addi	a4,sp,404
 206:	0b59                	addi	s6,s6,22
 208:	00000b57          	0xb57
 20c:	8922                	mv	s2,s0
 20e:	0182                	c.slli64	gp
 210:	1101                	addi	sp,sp,-32
 212:	3101                	jal	fffffe12 <fromhost+0xefffde02>
 214:	00130113          	addi	sp,t1,1
 218:	2300                	fld	fs0,0(a4)
 21a:	012e                	slli	sp,sp,0xb
 21c:	0e03193f 0b3b0b3a 	0xb3b0b3a0e03193f
 224:	0b39                	addi	s6,s6,14
 226:	1349                	addi	t1,t1,-14
 228:	0b20                	addi	s0,sp,408
 22a:	1301                	addi	t1,t1,-32
 22c:	0000                	unimp
 22e:	3424                	fld	fs1,104(s0)
 230:	0300                	addi	s0,sp,384
 232:	3a0e                	fld	fs4,224(sp)
 234:	390b3b0b          	0x390b3b0b
 238:	0213490b          	0x213490b
 23c:	25000017          	auipc	zero,0x25000
 240:	002e                	c.slli	zero,0xb
 242:	0e03193f 0b3b0b3a 	0xb3b0b3a0e03193f
 24a:	0b39                	addi	s6,s6,14
 24c:	0111                	addi	sp,sp,4
 24e:	0612                	slli	a2,a2,0x4
 250:	1840                	addi	s0,sp,52
 252:	00194297          	auipc	t0,0x194
 256:	2600                	fld	fs0,8(a2)
 258:	002e                	c.slli	zero,0xb
 25a:	0e03193f 0b3b0b3a 	0xb3b0b3a0e03193f
 262:	0b39                	addi	s6,s6,14
 264:	0b20                	addi	s0,sp,408
 266:	0000                	unimp
 268:	03000527          	0x3000527
 26c:	3a08                	fld	fa0,48(a2)
 26e:	390b3b0b          	0x390b3b0b
 272:	0213490b          	0x213490b
 276:	28000017          	auipc	zero,0x28000
 27a:	0034                	addi	a3,sp,8
 27c:	0b3a0803          	lb	a6,179(s4)
 280:	0b390b3b          	0xb390b3b
 284:	1349                	addi	t1,t1,-14
 286:	1702                	slli	a4,a4,0x20
 288:	0000                	unimp
 28a:	1d29                	addi	s10,s10,-22
 28c:	3101                	jal	fffffe8c <fromhost+0xefffde7c>
 28e:	55015213          	0x55015213
 292:	590b5817          	auipc	a6,0x590b5
 296:	010b570b          	0x10b570b
 29a:	2a000013          	li	zero,672
 29e:	0005                	c.nop	1
 2a0:	1331                	addi	t1,t1,-20
 2a2:	1802                	slli	a6,a6,0x20
 2a4:	0000                	unimp
 2a6:	0b000f2b          	0xb000f2b
 2aa:	0013490b          	0x13490b
 2ae:	2c00                	fld	fs0,24(s0)
 2b0:	0026                	c.slli	zero,0x9
 2b2:	1349                	addi	t1,t1,-14
 2b4:	0000                	unimp
 2b6:	2e2d                	jal	5f0 <_min_stack-0x210>
 2b8:	3f01                	jal	1c8 <_min_stack-0x638>
 2ba:	0319                	addi	t1,t1,6
 2bc:	3a0e                	fld	fs4,224(sp)
 2be:	390b3b0b          	0x390b3b0b
 2c2:	4919270b          	0x4919270b
 2c6:	010b2013          	slti	zero,s6,16
 2ca:	2e000013          	li	zero,736
 2ce:	0005                	c.nop	1
 2d0:	0b3a0803          	lb	a6,179(s4)
 2d4:	0b390b3b          	0xb390b3b
 2d8:	1349                	addi	t1,t1,-14
 2da:	0000                	unimp
 2dc:	31012e2f          	0x31012e2f
 2e0:	12011113          	0x12011113
 2e4:	4006                	0x4006
 2e6:	9718                	0x9718
 2e8:	1942                	slli	s2,s2,0x30
 2ea:	1301                	addi	t1,t1,-32
 2ec:	0000                	unimp
 2ee:	2e30                	fld	fa2,88(a2)
 2f0:	3100                	fld	fs0,32(a0)
 2f2:	12011113          	0x12011113
 2f6:	4006                	0x4006
 2f8:	9718                	0x9718
 2fa:	1942                	slli	s2,s2,0x30
 2fc:	0000                	unimp
 2fe:	3431                	jal	fffffd0a <fromhost+0xefffdcfa>
 300:	3100                	fld	fs0,32(a0)
 302:	00180213          	addi	tp,a6,1 # 590b5293 <fromhost+0x490b3283>
 306:	3200                	fld	fs0,32(a2)
 308:	012e                	slli	sp,sp,0xb
 30a:	1331                	addi	t1,t1,-20
 30c:	0111                	addi	sp,sp,4
 30e:	0612                	slli	a2,a2,0x4
 310:	1840                	addi	s0,sp,52
 312:	00194297          	auipc	t0,0x194
 316:	0000                	unimp
 318:	1101                	addi	sp,sp,-32
 31a:	2501                	jal	91a <_min_stack+0x11a>
 31c:	130e                	slli	t1,t1,0x23
 31e:	1b0e030b          	0x1b0e030b
 322:	550e                	lw	a0,224(sp)
 324:	10011117          	auipc	sp,0x10011
 328:	02000017          	auipc	zero,0x2000
 32c:	0024                	addi	s1,sp,8
 32e:	0b3e0b0b          	0xb3e0b0b
 332:	00000e03          	lb	t3,0(zero) # 0 <_min_stack-0x800>
 336:	03001603          	lh	a2,48(zero) # 30 <_min_stack-0x7d0>
 33a:	3a0e                	fld	fs4,224(sp)
 33c:	390b3b0b          	0x390b3b0b
 340:	0013490b          	0x13490b
 344:	0400                	addi	s0,sp,512
 346:	0024                	addi	s1,sp,8
 348:	0b3e0b0b          	0xb3e0b0b
 34c:	00000803          	lb	a6,0(zero) # 0 <_min_stack-0x800>
 350:	1605                	addi	a2,a2,-31
 352:	0300                	addi	s0,sp,384
 354:	3a0e                	fld	fs4,224(sp)
 356:	39053b0b          	0x39053b0b
 35a:	0013490b          	0x13490b
 35e:	0600                	addi	s0,sp,768
 360:	0b0b0117          	auipc	sp,0xb0b0
 364:	0b3a                	slli	s6,s6,0xe
 366:	0b390b3b          	0xb390b3b
 36a:	1301                	addi	t1,t1,-32
 36c:	0000                	unimp
 36e:	03000d07          	0x3000d07
 372:	3a0e                	fld	fs4,224(sp)
 374:	390b3b0b          	0x390b3b0b
 378:	0013490b          	0x13490b
 37c:	0800                	addi	s0,sp,16
 37e:	0101                	addi	sp,sp,0
 380:	1349                	addi	t1,t1,-14
 382:	1301                	addi	t1,t1,-32
 384:	0000                	unimp
 386:	2109                	jal	788 <_min_stack-0x78>
 388:	4900                	lw	s0,16(a0)
 38a:	000b2f13          	slti	t5,s6,0
 38e:	0a00                	addi	s0,sp,272
 390:	0b0b0113          	addi	sp,s6,176 # 4ffb8 <tohost+0x2ffb0>
 394:	0b3a                	slli	s6,s6,0xe
 396:	0b390b3b          	0xb390b3b
 39a:	1301                	addi	t1,t1,-32
 39c:	0000                	unimp
 39e:	03000d0b          	0x3000d0b
 3a2:	3a0e                	fld	fs4,224(sp)
 3a4:	390b3b0b          	0x390b3b0b
 3a8:	3813490b          	0x3813490b
 3ac:	0c00000b          	0xc00000b
 3b0:	0b0b000f          	0xb0b000f
 3b4:	0000                	unimp
 3b6:	0f0d                	addi	t5,t5,3
 3b8:	0b00                	addi	s0,sp,400
 3ba:	0013490b          	0x13490b
 3be:	0e00                	addi	s0,sp,784
 3c0:	0026                	c.slli	zero,0x9
 3c2:	1349                	addi	t1,t1,-14
 3c4:	0000                	unimp
 3c6:	0301130f          	0x301130f
 3ca:	0b0e                	slli	s6,s6,0x3
 3cc:	3b0b3a0b          	0x3b0b3a0b
 3d0:	010b390b          	0x10b390b
 3d4:	10000013          	li	zero,256
 3d8:	000d                	c.nop	3
 3da:	0b3a0803          	lb	a6,179(s4)
 3de:	0b390b3b          	0xb390b3b
 3e2:	1349                	addi	t1,t1,-14
 3e4:	0b38                	addi	a4,sp,408
 3e6:	0000                	unimp
 3e8:	1311                	addi	t1,t1,-28
 3ea:	0301                	addi	t1,t1,0
 3ec:	0b0e                	slli	s6,s6,0x3
 3ee:	3a05                	jal	fffffd1e <fromhost+0xefffdd0e>
 3f0:	390b3b0b          	0x390b3b0b
 3f4:	0013010b          	0x13010b
 3f8:	1200                	addi	s0,sp,288
 3fa:	000d                	c.nop	3
 3fc:	0b3a0e03          	lb	t3,179(s4)
 400:	0b390b3b          	0xb390b3b
 404:	1349                	addi	t1,t1,-14
 406:	0538                	addi	a4,sp,648
 408:	0000                	unimp
 40a:	27001513          	0x27001513
 40e:	0019                	c.nop	6
 410:	1400                	addi	s0,sp,544
 412:	0115                	addi	sp,sp,5
 414:	13491927          	0x13491927
 418:	1301                	addi	t1,t1,-32
 41a:	0000                	unimp
 41c:	0515                	addi	a0,a0,5
 41e:	4900                	lw	s0,16(a0)
 420:	16000013          	li	zero,352
 424:	0e030113          	addi	sp,t1,224
 428:	0b3a050b          	0xb3a050b
 42c:	0b39053b          	0xb39053b
 430:	1301                	addi	t1,t1,-32
 432:	0000                	unimp
 434:	03000d17          	auipc	s10,0x3000
 438:	3a0e                	fld	fs4,224(sp)
 43a:	39053b0b          	0x39053b0b
 43e:	3813490b          	0x3813490b
 442:	1800000b          	0x1800000b
 446:	000d                	c.nop	3
 448:	0b3a0e03          	lb	t3,179(s4)
 44c:	0b39053b          	0xb39053b
 450:	1349                	addi	t1,t1,-14
 452:	0538                	addi	a4,sp,648
 454:	0000                	unimp
 456:	1319                	addi	t1,t1,-26
 458:	0301                	addi	t1,t1,0
 45a:	0b0e                	slli	s6,s6,0x3
 45c:	3b0b3a0b          	0x3b0b3a0b
 460:	3905                	jal	90 <_min_stack-0x770>
 462:	0013010b          	0x13010b
 466:	1a00                	addi	s0,sp,304
 468:	0b0b0113          	addi	sp,s6,176
 46c:	0b3a                	slli	s6,s6,0xe
 46e:	0b39053b          	0xb39053b
 472:	1301                	addi	t1,t1,-32
 474:	0000                	unimp
 476:	0b01171b          	0xb01171b
 47a:	3b0b3a0b          	0x3b0b3a0b
 47e:	3905                	jal	ae <_min_stack-0x752>
 480:	0013010b          	0x13010b
 484:	1c00                	addi	s0,sp,560
 486:	000d                	c.nop	3
 488:	0b3a0e03          	lb	t3,179(s4)
 48c:	0b39053b          	0xb39053b
 490:	1349                	addi	t1,t1,-14
 492:	0000                	unimp
 494:	131d                	addi	t1,t1,-25
 496:	0300                	addi	s0,sp,384
 498:	3c0e                	fld	fs8,224(sp)
 49a:	0019                	c.nop	6
 49c:	1e00                	addi	s0,sp,816
 49e:	0115                	addi	sp,sp,5
 4a0:	13011927          	0x13011927
 4a4:	0000                	unimp
 4a6:	341f 0300 3a0e      	0x3a0e0300341f
 4ac:	39053b0b          	0x39053b0b
 4b0:	3f13490b          	0x3f13490b
 4b4:	3c19                	jal	fffffeca <fromhost+0xefffdeba>
 4b6:	0019                	c.nop	6
 4b8:	2000                	fld	fs0,0(s0)
 4ba:	012e                	slli	sp,sp,0xb
 4bc:	0e03193f 0b3b0b3a 	0xb3b0b3a0e03193f
 4c4:	0b39                	addi	s6,s6,14
 4c6:	13491927          	0x13491927
 4ca:	0111                	addi	sp,sp,4
 4cc:	0612                	slli	a2,a2,0x4
 4ce:	1840                	addi	s0,sp,52
 4d0:	01194297          	auipc	t0,0x1194
 4d4:	21000013          	li	zero,528
 4d8:	0005                	c.nop	1
 4da:	0b3a0e03          	lb	t3,179(s4)
 4de:	0b390b3b          	0xb390b3b
 4e2:	1349                	addi	t1,t1,-14
 4e4:	1802                	slli	a6,a6,0x20
 4e6:	0000                	unimp
 4e8:	2e22                	fld	ft8,8(sp)
 4ea:	3f01                	jal	3fa <_min_stack-0x406>
 4ec:	0319                	addi	t1,t1,6
 4ee:	3a0e                	fld	fs4,224(sp)
 4f0:	390b3b0b          	0x390b3b0b
 4f4:	1119270b          	0x1119270b
 4f8:	1201                	addi	tp,tp,-32
 4fa:	4006                	0x4006
 4fc:	9718                	0x9718
 4fe:	1942                	slli	s2,s2,0x30
 500:	1301                	addi	t1,t1,-32
 502:	0000                	unimp
 504:	03000523          	sb	a6,42(zero) # 2a <_min_stack-0x7d6>
 508:	3a08                	fld	fa0,48(a2)
 50a:	390b3b0b          	0x390b3b0b
 50e:	0213490b          	0x213490b
 512:	24000017          	auipc	zero,0x24000
 516:	8289                	srli	a3,a3,0x2
 518:	0101                	addi	sp,sp,0
 51a:	0111                	addi	sp,sp,4
 51c:	4295                	li	t0,5
 51e:	3119                	jal	124 <_min_stack-0x6dc>
 520:	25000013          	li	zero,592
 524:	828a                	mv	t0,sp
 526:	0001                	nop
 528:	1802                	slli	a6,a6,0x20
 52a:	4291                	li	t0,4
 52c:	0018                	0x18
 52e:	2600                	fld	fs0,8(a2)
 530:	002e                	c.slli	zero,0xb
 532:	193c193f 0e030e6e 	0xe030e6e193c193f
 53a:	0b3a                	slli	s6,s6,0xe
 53c:	0b390b3b          	0xb390b3b
 540:	0000                	unimp
 542:	0100                	addi	s0,sp,128
 544:	0011                	c.nop	4
 546:	0610                	addi	a2,sp,768
 548:	0655                	addi	a2,a2,21
 54a:	0e1b0e03          	lb	t3,225(s6)
 54e:	0e25                	addi	t3,t3,9
 550:	00000513          	li	a0,0
	...

Disassembly of section .debug_loc:

00000000 <.debug_loc>:
   0:	02f8                	addi	a4,sp,332
   2:	0000                	unimp
   4:	0340                	addi	s0,sp,388
   6:	0000                	unimp
   8:	0006                	c.slli	zero,0x1
   a:	9358                	0x9358
   c:	5904                	lw	s1,48(a0)
   e:	00000493          	li	s1,0
  12:	0000                	unimp
  14:	0000                	unimp
  16:	0000                	unimp
  18:	0248                	addi	a0,sp,260
  1a:	0000                	unimp
  1c:	0000028b          	0x28b
  20:	0006                	c.slli	zero,0x1
  22:	935a                	add	t1,t1,s6
  24:	5b04                	lw	s1,48(a4)
  26:	028b0493          	addi	s1,s6,40
  2a:	0000                	unimp
  2c:	02c4                	addi	s1,sp,324
  2e:	0000                	unimp
  30:	0006                	c.slli	zero,0x1
  32:	0af503f3          	0xaf503f3
  36:	9f25                	0x9f25
	...
  40:	0288                	addi	a0,sp,320
  42:	0000                	unimp
  44:	0294                	addi	a3,sp,320
  46:	0000                	unimp
  48:	0006                	c.slli	zero,0x1
  4a:	9358                	0x9358
  4c:	5904                	lw	s1,48(a0)
  4e:	00000493          	li	s1,0
  52:	0000                	unimp
  54:	0000                	unimp
  56:	0000                	unimp
  58:	01f4                	addi	a3,sp,204
  5a:	0000                	unimp
  5c:	0200                	addi	s0,sp,256
  5e:	0000                	unimp
  60:	0002                	c.slli64	zero
  62:	9f3a                	add	t5,t5,a4
	...
  6c:	0170                	addi	a2,sp,140
  6e:	0000                	unimp
  70:	0174                	addi	a3,sp,140
  72:	0000                	unimp
  74:	0001                	nop
  76:	745a                	flw	fs0,180(sp)
  78:	0001                	nop
  7a:	8000                	0x8000
  7c:	0001                	nop
  7e:	0400                	addi	s0,sp,512
  80:	f300                	fsw	fs0,32(a4)
  82:	5a01                	li	s4,-32
  84:	009f 0000 0000      	0x9f
  8a:	0000                	unimp
  8c:	7000                	flw	fs0,32(s0)
  8e:	0001                	nop
  90:	7400                	flw	fs0,40(s0)
  92:	0001                	nop
  94:	0900                	addi	s0,sp,144
  96:	7a00                	flw	fs0,48(a2)
  98:	3000                	fld	fs0,32(s0)
  9a:	0829                	addi	a6,a6,10
  9c:	1aff                	0x1aff
  9e:	9f1f 0174 0000      	0x1749f1f
  a4:	0180                	addi	s0,sp,192
  a6:	0000                	unimp
  a8:	000a                	c.slli	zero,0x2
  aa:	305a01f3          	0x305a01f3
  ae:	0829                	addi	a6,a6,10
  b0:	1aff                	0x1aff
  b2:	9f1f 0000 0000      	0x9f1f
  b8:	0000                	unimp
  ba:	0000                	unimp
  bc:	0030                	addi	a2,sp,8
  be:	0000                	unimp
  c0:	0054                	addi	a3,sp,4
  c2:	0000                	unimp
  c4:	0001                	nop
  c6:	545a                	lw	s0,180(sp)
  c8:	0000                	unimp
  ca:	6400                	flw	fs0,8(s0)
  cc:	0000                	unimp
  ce:	0100                	addi	s0,sp,128
  d0:	5a00                	lw	s0,48(a2)
	...
  da:	0040                	addi	s0,sp,4
  dc:	0000                	unimp
  de:	0048                	addi	a0,sp,4
  e0:	0000                	unimp
  e2:	0001                	nop
  e4:	485f 0000 5400      	0x54000000485f
  ea:	0000                	unimp
  ec:	0500                	addi	s0,sp,640
  ee:	7a00                	flw	fs0,48(a2)
  f0:	4c00                	lw	s0,24(s0)
  f2:	9f25                	0x9f25
  f4:	005c                	addi	a5,sp,4
  f6:	0000                	unimp
  f8:	0060                	addi	s0,sp,12
  fa:	0000                	unimp
  fc:	0001                	nop
  fe:	605f 0000 6400      	0x64000000605f
 104:	0000                	unimp
 106:	0300                	addi	s0,sp,384
 108:	7f00                	flw	fs0,56(a4)
 10a:	9f49                	0x9f49
	...
 114:	0030                	addi	a2,sp,8
 116:	0000                	unimp
 118:	003c                	addi	a5,sp,8
 11a:	0000                	unimp
 11c:	0002                	c.slli64	zero
 11e:	9f30                	0x9f30
 120:	003c                	addi	a5,sp,8
 122:	0000                	unimp
 124:	0050                	addi	a2,sp,4
 126:	0000                	unimp
 128:	0005                	c.nop	1
 12a:	7e38                	flw	fa4,120(a2)
 12c:	1c00                	addi	s0,sp,560
 12e:	509f 0000 5400      	0x54000000509f
 134:	0000                	unimp
 136:	0500                	addi	s0,sp,640
 138:	3700                	fld	fs0,40(a4)
 13a:	007e                	c.slli	zero,0x1f
 13c:	9f1c                	0x9f1c
 13e:	005c                	addi	a5,sp,4
 140:	0000                	unimp
 142:	0064                	addi	s1,sp,12
 144:	0000                	unimp
 146:	0005                	c.nop	1
 148:	7e38                	flw	fa4,120(a2)
 14a:	1c00                	addi	s0,sp,560
 14c:	009f 0000 0000      	0x9f
 152:	0000                	unimp
 154:	5c00                	lw	s0,56(s0)
 156:	0000                	unimp
 158:	6000                	flw	fs0,0(s0)
 15a:	0000                	unimp
 15c:	0300                	addi	s0,sp,384
 15e:	7f00                	flw	fs0,56(a4)
 160:	00609f37          	lui	t5,0x609
 164:	0000                	unimp
 166:	0064                	addi	s1,sp,12
 168:	0000                	unimp
 16a:	0001                	nop
 16c:	005f 0000 0000      	0x5f
 172:	0000                	unimp
 174:	4400                	lw	s0,8(s0)
 176:	0000                	unimp
 178:	4800                	lw	s0,16(s0)
 17a:	0000                	unimp
 17c:	0300                	addi	s0,sp,384
 17e:	7f00                	flw	fs0,56(a4)
 180:	9f30                	0x9f30
	...
 18a:	0010                	0x10
 18c:	0000                	unimp
 18e:	0020                	addi	s0,sp,8
 190:	0000                	unimp
 192:	0001                	nop
 194:	245a                	fld	fs0,400(sp)
 196:	0000                	unimp
 198:	3000                	fld	fs0,32(s0)
 19a:	0000                	unimp
 19c:	0100                	addi	s0,sp,128
 19e:	5a00                	lw	s0,48(a2)
	...
 1a8:	05cc                	addi	a1,sp,708
 1aa:	1000                	addi	s0,sp,32
 1ac:	100005cf          	fnmadd.s	fa1,ft0,ft0,ft2,rne
 1b0:	0001                	nop
 1b2:	cf5a                	sw	s6,156(sp)
 1b4:	0005                	c.nop	1
 1b6:	d010                	sw	a2,32(s0)
 1b8:	0005                	c.nop	1
 1ba:	0410                	addi	a2,sp,512
 1bc:	f300                	fsw	fs0,32(a4)
 1be:	5a01                	li	s4,-32
 1c0:	009f 0000 0000      	0x9f
 1c6:	0000                	unimp
	...

Disassembly of section .debug_aranges:

00000000 <.debug_aranges>:
   0:	001c                	0x1c
   2:	0000                	unimp
   4:	0002                	c.slli64	zero
   6:	0000                	unimp
   8:	0000                	unimp
   a:	0004                	0x4
   c:	0000                	unimp
   e:	0000                	unimp
  10:	0084                	addi	s1,sp,64
  12:	1000                	addi	s0,sp,32
  14:	0548                	addi	a0,sp,644
	...
  1e:	0000                	unimp
  20:	0024                	addi	s1,sp,8
  22:	0000                	unimp
  24:	0002                	c.slli64	zero
  26:	06ae                	slli	a3,a3,0xb
  28:	0000                	unimp
  2a:	0004                	0x4
  2c:	0000                	unimp
  2e:	0000                	unimp
  30:	05cc                	addi	a1,sp,708
  32:	1000                	addi	s0,sp,32
  34:	0004                	0x4
  36:	0000                	unimp
  38:	06a8                	addi	a0,sp,840
  3a:	1000                	addi	s0,sp,32
  3c:	0020                	addi	s0,sp,8
	...
  46:	0000                	unimp
  48:	0024                	addi	s1,sp,8
  4a:	0000                	unimp
  4c:	0002                	c.slli64	zero
  4e:	1051                	c.nop	-12
  50:	0000                	unimp
  52:	0004                	0x4
  54:	0000                	unimp
  56:	0000                	unimp
  58:	05d0                	addi	a2,sp,708
  5a:	1000                	addi	s0,sp,32
  5c:	00d8                	addi	a4,sp,68
  5e:	0000                	unimp
  60:	0000                	unimp
  62:	1000                	addi	s0,sp,32
  64:	0084                	addi	s1,sp,64
	...

Disassembly of section .debug_ranges:

00000000 <.debug_ranges>:
   0:	0010                	0x10
   2:	0000                	unimp
   4:	0014                	0x14
   6:	0000                	unimp
   8:	0028                	addi	a0,sp,8
   a:	0000                	unimp
   c:	0030                	addi	a2,sp,8
	...
  16:	0000                	unimp
  18:	0030                	addi	a2,sp,8
  1a:	0000                	unimp
  1c:	0030                	addi	a2,sp,8
  1e:	0000                	unimp
  20:	0034                	addi	a3,sp,8
  22:	0000                	unimp
  24:	0058                	addi	a4,sp,4
  26:	0000                	unimp
  28:	005c                	addi	a5,sp,4
  2a:	0000                	unimp
  2c:	0064                	addi	s1,sp,12
	...
  36:	0000                	unimp
  38:	0038                	addi	a4,sp,8
  3a:	0000                	unimp
  3c:	003c                	addi	a5,sp,8
  3e:	0000                	unimp
  40:	0048                	addi	a0,sp,4
  42:	0000                	unimp
  44:	004c                	addi	a1,sp,4
  46:	0000                	unimp
  48:	005c                	addi	a5,sp,4
  4a:	0000                	unimp
  4c:	005c                	addi	a5,sp,4
	...
  56:	0000                	unimp
  58:	02f8                	addi	a4,sp,332
  5a:	0000                	unimp
  5c:	02f8                	addi	a4,sp,332
  5e:	0000                	unimp
  60:	0334                	addi	a3,sp,392
  62:	0000                	unimp
  64:	034c                	addi	a1,sp,388
	...
  6e:	0000                	unimp
  70:	05cc                	addi	a1,sp,708
  72:	1000                	addi	s0,sp,32
  74:	05d0                	addi	a2,sp,708
  76:	1000                	addi	s0,sp,32
  78:	06a8                	addi	a0,sp,840
  7a:	1000                	addi	s0,sp,32
  7c:	06c8                	addi	a0,sp,836
  7e:	1000                	addi	s0,sp,32
	...
  88:	ffff                	0xffff
  8a:	ffff                	0xffff
  8c:	0000                	unimp
  8e:	0000                	unimp
  90:	05d0                	addi	a2,sp,708
  92:	1000                	addi	s0,sp,32
  94:	06a8                	addi	a0,sp,840
  96:	1000                	addi	s0,sp,32
  98:	0000                	unimp
  9a:	1000                	addi	s0,sp,32
  9c:	0084                	addi	s1,sp,64
  9e:	1000                	addi	s0,sp,32
	...

Disassembly of section .debug_line:

00000000 <.debug_line>:
   0:	0749                	addi	a4,a4,18
   2:	0000                	unimp
   4:	00d60003          	lb	zero,13(a2) # 5cba9 <tohost+0x3cba1>
   8:	0000                	unimp
   a:	0101                	addi	sp,sp,0
   c:	000d0efb          	0xd0efb
  10:	0101                	addi	sp,sp,0
  12:	0101                	addi	sp,sp,0
  14:	0000                	unimp
  16:	0100                	addi	s0,sp,128
  18:	0000                	unimp
  1a:	2f01                	jal	72a <_min_stack-0xd6>
  1c:	6f68                	flw	fa0,92(a4)
  1e:	656d                	lui	a0,0x1b
  20:	6573752f          	0x6573752f
  24:	2f72                	fld	ft10,280(sp)
  26:	6f44                	flw	fs1,28(a4)
  28:	6f6c6e77          	0x6f6c6e77
  2c:	6461                	lui	s0,0x18
  2e:	706f2f73          	csrrs	t5,0x706,t5
  32:	6e65                	lui	t3,0x19
  34:	6974                	flw	fa3,84(a0)
  36:	6174                	flw	fa3,68(a0)
  38:	5f6e                	lw	t5,248(sp)
  3a:	6f66                	flw	ft10,88(sp)
  3c:	6b72                	flw	fs6,28(sp)
  3e:	2f77682f          	0x2f77682f
  42:	7069                	c.lui	zero,0xffffa
  44:	6573692f          	0x6573692f
  48:	2f77732f          	0x2f77732f
  4c:	6d6d6f63          	bltu	s10,s6,72a <_min_stack-0xd6>
  50:	2f006e6f          	jal	t3,6340 <_stack_len+0x5340>
  54:	2f74706f          	j	47b4a <tohost+0x27b42>
  58:	6f6c                	flw	fa1,92(a4)
  5a:	73697277          	0x73697277
  5e:	6f742d63          	0x6f742d63
  62:	68636c6f          	jal	s8,366e8 <tohost+0x166e0>
  66:	6961                	lui	s2,0x18
  68:	2d6e                	fld	fs10,216(sp)
  6a:	2d636367          	0x2d636367
  6e:	7672                	flw	fa2,60(sp)
  70:	6d693233          	0x6d693233
  74:	30322d63          	0x30322d63
  78:	3032                	fld	ft0,296(sp)
  7a:	3630                	fld	fa2,104(a2)
  7c:	3632                	fld	fa2,296(sp)
  7e:	312d                	jal	fffffca8 <fromhost+0xefffdc98>
  80:	62696c2f          	0x62696c2f
  84:	6363672f          	0x6363672f
  88:	7369722f          	0x7369722f
  8c:	32337663          	bgeu	t1,gp,3b8 <_min_stack-0x448>
  90:	752d                	lui	a0,0xfffeb
  92:	6b6e                	flw	fs6,216(sp)
  94:	6f6e                	flw	ft10,216(sp)
  96:	652d6e77          	0x652d6e77
  9a:	666c                	flw	fa1,76(a2)
  9c:	322e392f          	0x322e392f
  a0:	302e                	fld	ft0,232(sp)
  a2:	636e692f          	0x636e692f
  a6:	756c                	flw	fa1,108(a0)
  a8:	6564                	flw	fs1,76(a0)
  aa:	0000                	unimp
  ac:	706d6973          	csrrsi	s2,0x706,26
  b0:	656c                	flw	fa1,76(a0)
  b2:	735f 7379 6574      	0x65747379735f
  b8:	5f6d                	li	t5,-5
  ba:	6d6d6f63          	bltu	s10,s6,798 <_min_stack-0x68>
  be:	632e6e6f          	jal	t3,e66f0 <tohost+0xc66e8>
  c2:	0100                	addi	s0,sp,128
  c4:	0000                	unimp
  c6:	69647473          	csrrci	s0,0x696,8
  ca:	746e                	flw	fs0,248(sp)
  cc:	672d                	lui	a4,0xb
  ce:	682e6363          	bltu	t3,sp,754 <_min_stack-0xac>
  d2:	0200                	addi	s0,sp,256
  d4:	0000                	unimp
  d6:	7069                	c.lui	zero,0xffffa
  d8:	00682e63          	0x682e63
  dc:	0001                	nop
  de:	0000                	unimp
  e0:	1405                	addi	s0,s0,-31
  e2:	0500                	addi	s0,sp,640
  e4:	8402                	jr	s0
  e6:	0000                	unimp
  e8:	1810                	addi	a2,sp,48
  ea:	0305                	addi	t1,t1,1
  ec:	00090103          	lb	sp,0(s2) # 18000 <_stack_len+0x17000>
  f0:	0100                	addi	s0,sp,128
  f2:	0c090203          	lb	tp,192(s2)
  f6:	0100                	addi	s0,sp,128
  f8:	0105                	addi	sp,sp,1
  fa:	0306                	slli	t1,t1,0x1
  fc:	0901                	addi	s2,s2,0
  fe:	0000                	unimp
 100:	0501                	addi	a0,a0,0
 102:	0203061b          	0x203061b
 106:	0409                	addi	s0,s0,2
 108:	0100                	addi	s0,sp,128
 10a:	0305                	addi	t1,t1,1
 10c:	00090103          	lb	sp,0(s2)
 110:	0100                	addi	s0,sp,128
 112:	0306                	slli	t1,t1,0x1
 114:	097a                	slli	s2,s2,0x1e
 116:	0000                	unimp
 118:	0501                	addi	a0,a0,0
 11a:	0609                	addi	a2,a2,2
 11c:	04090603          	lb	a2,64(s2)
 120:	0100                	addi	s0,sp,128
 122:	0a05                	addi	s4,s4,1
 124:	0306                	slli	t1,t1,0x1
 126:	0900                	addi	s0,sp,144
 128:	0000                	unimp
 12a:	0501                	addi	a0,a0,0
 12c:	0309                	addi	t1,t1,2
 12e:	0900                	addi	s0,sp,144
 130:	0004                	0x4
 132:	0501                	addi	a0,a0,0
 134:	04030603          	lb	a2,64(t1)
 138:	0409                	addi	s0,s0,2
 13a:	0100                	addi	s0,sp,128
 13c:	0105                	addi	sp,sp,1
 13e:	0306                	slli	t1,t1,0x1
 140:	0901                	addi	s2,s2,0
 142:	0000                	unimp
 144:	0501                	addi	a0,a0,0
 146:	0605                	addi	a2,a2,1
 148:	08097c03          	0x8097c03
 14c:	0100                	addi	s0,sp,128
 14e:	1105                	addi	sp,sp,-31
 150:	0306                	slli	t1,t1,0x1
 152:	0900                	addi	s0,sp,144
 154:	0000                	unimp
 156:	0501                	addi	a0,a0,0
 158:	79030603          	lb	a2,1936(t1)
 15c:	0409                	addi	s0,s0,2
 15e:	0100                	addi	s0,sp,128
 160:	04090203          	lb	tp,64(s2)
 164:	0100                	addi	s0,sp,128
 166:	0a05                	addi	s4,s4,1
 168:	0306                	slli	t1,t1,0x1
 16a:	0900                	addi	s0,sp,144
 16c:	0000                	unimp
 16e:	0501                	addi	a0,a0,0
 170:	0619                	addi	a2,a2,6
 172:	04090b03          	lb	s6,64(s2)
 176:	0100                	addi	s0,sp,128
 178:	0305                	addi	t1,t1,1
 17a:	00090103          	lb	sp,0(s2)
 17e:	0100                	addi	s0,sp,128
 180:	00090303          	lb	t1,0(s2)
 184:	0100                	addi	s0,sp,128
 186:	0805                	addi	a6,a6,1
 188:	00090003          	lb	zero,0(s2)
 18c:	0100                	addi	s0,sp,128
 18e:	1305                	addi	t1,t1,-31
 190:	00090003          	lb	zero,0(s2)
 194:	0100                	addi	s0,sp,128
 196:	1905                	addi	s2,s2,-31
 198:	0306                	slli	t1,t1,0x1
 19a:	097c                	addi	a5,sp,156
 19c:	0000                	unimp
 19e:	0501                	addi	a0,a0,0
 1a0:	0308                	addi	a0,sp,384
 1a2:	00040907          	0x40907
 1a6:	0501                	addi	a0,a0,0
 1a8:	096c0303          	lb	t1,150(s8) # 3fcb0 <tohost+0x1fca8>
 1ac:	0004                	0x4
 1ae:	0501                	addi	a0,a0,0
 1b0:	0605                	addi	a2,a2,1
 1b2:	04091203          	lh	tp,64(s2)
 1b6:	0100                	addi	s0,sp,128
 1b8:	1305                	addi	t1,t1,-31
 1ba:	0306                	slli	t1,t1,0x1
 1bc:	0900                	addi	s0,sp,144
 1be:	0000                	unimp
 1c0:	0501                	addi	a0,a0,0
 1c2:	0605                	addi	a2,a2,1
 1c4:	04090203          	lb	tp,64(s2)
 1c8:	0100                	addi	s0,sp,128
 1ca:	0805                	addi	a6,a6,1
 1cc:	0306                	slli	t1,t1,0x1
 1ce:	0900                	addi	s0,sp,144
 1d0:	0000                	unimp
 1d2:	0501                	addi	a0,a0,0
 1d4:	01030607          	0x1030607
 1d8:	0409                	addi	s0,s0,2
 1da:	0100                	addi	s0,sp,128
 1dc:	0305                	addi	t1,t1,1
 1de:	00096b03          	0x96b03
 1e2:	0100                	addi	s0,sp,128
 1e4:	0705                	addi	a4,a4,1
 1e6:	0306                	slli	t1,t1,0x1
 1e8:	0915                	addi	s2,s2,5
 1ea:	0000                	unimp
 1ec:	0501                	addi	a0,a0,0
 1ee:	096b0303          	lb	t1,150(s6)
 1f2:	0004                	0x4
 1f4:	0601                	addi	a2,a2,0
 1f6:	04090203          	lb	tp,64(s2)
 1fa:	0100                	addi	s0,sp,128
 1fc:	0505                	addi	a0,a0,1
 1fe:	00091703          	lh	a4,0(s2)
 202:	0100                	addi	s0,sp,128
 204:	0705                	addi	a4,a4,1
 206:	0306                	slli	t1,t1,0x1
 208:	0900                	addi	s0,sp,144
 20a:	0004                	0x4
 20c:	0501                	addi	a0,a0,0
 20e:	061a                	slli	a2,a2,0x6
 210:	04097803          	0x4097803
 214:	0100                	addi	s0,sp,128
 216:	1305                	addi	t1,t1,-31
 218:	00090003          	lb	zero,0(s2)
 21c:	0100                	addi	s0,sp,128
 21e:	0305                	addi	t1,t1,1
 220:	0306                	slli	t1,t1,0x1
 222:	0900                	addi	s0,sp,144
 224:	0000                	unimp
 226:	0501                	addi	a0,a0,0
 228:	0301                	addi	t1,t1,0
 22a:	090a                	slli	s2,s2,0x2
 22c:	0004                	0x4
 22e:	0501                	addi	a0,a0,0
 230:	7c030607          	0x7c030607
 234:	0409                	addi	s0,s0,2
 236:	0100                	addi	s0,sp,128
 238:	0305                	addi	t1,t1,1
 23a:	00096903          	0x96903
 23e:	0100                	addi	s0,sp,128
 240:	0705                	addi	a4,a4,1
 242:	0306                	slli	t1,t1,0x1
 244:	00000917          	auipc	s2,0x0
 248:	0501                	addi	a0,a0,0
 24a:	0611                	addi	a2,a2,4
 24c:	08090603          	lb	a2,128(s2) # 2c4 <_min_stack-0x53c>
 250:	0100                	addi	s0,sp,128
 252:	1305                	addi	t1,t1,-31
 254:	00090003          	lb	zero,0(s2)
 258:	0100                	addi	s0,sp,128
 25a:	0105                	addi	sp,sp,1
 25c:	0306                	slli	t1,t1,0x1
 25e:	0900                	addi	s0,sp,144
 260:	000c                	0xc
 262:	0501                	addi	a0,a0,0
 264:	0615                	addi	a2,a2,5
 266:	04090203          	lb	tp,64(s2)
 26a:	0100                	addi	s0,sp,128
 26c:	0305                	addi	t1,t1,1
 26e:	00090103          	lb	sp,0(s2)
 272:	0100                	addi	s0,sp,128
 274:	0105                	addi	sp,sp,1
 276:	0306                	slli	t1,t1,0x1
 278:	00f8093f 06200501 	0x620050100f8093f
 280:	04090203          	lb	tp,64(s2)
 284:	0100                	addi	s0,sp,128
 286:	0305                	addi	t1,t1,1
 288:	00090203          	lb	tp,0(s2)
 28c:	0100                	addi	s0,sp,128
 28e:	00090303          	lb	t1,0(s2)
 292:	0100                	addi	s0,sp,128
 294:	2b05                	jal	7c4 <_min_stack-0x3c>
 296:	0306                	slli	t1,t1,0x1
 298:	097d                	addi	s2,s2,31
 29a:	0000                	unimp
 29c:	0501                	addi	a0,a0,0
 29e:	09030303          	lb	t1,144(t1)
 2a2:	0008                	0x8
 2a4:	0501                	addi	a0,a0,0
 2a6:	0301                	addi	t1,t1,0
 2a8:	0901                	addi	s2,s2,0
 2aa:	0004                	0x4
 2ac:	0501                	addi	a0,a0,0
 2ae:	0619                	addi	a2,a2,6
 2b0:	04090203          	lb	tp,64(s2)
 2b4:	0100                	addi	s0,sp,128
 2b6:	0305                	addi	t1,t1,1
 2b8:	00090103          	lb	sp,0(s2)
 2bc:	0100                	addi	s0,sp,128
 2be:	00090103          	lb	sp,0(s2)
 2c2:	0100                	addi	s0,sp,128
 2c4:	04090103          	lb	sp,64(s2)
 2c8:	0100                	addi	s0,sp,128
 2ca:	0105                	addi	sp,sp,1
 2cc:	0306                	slli	t1,t1,0x1
 2ce:	0901                	addi	s2,s2,0
 2d0:	0000                	unimp
 2d2:	0501                	addi	a0,a0,0
 2d4:	0203061b          	0x203061b
 2d8:	0409                	addi	s0,s0,2
 2da:	0100                	addi	s0,sp,128
 2dc:	0305                	addi	t1,t1,1
 2de:	00090103          	lb	sp,0(s2)
 2e2:	0100                	addi	s0,sp,128
 2e4:	00090103          	lb	sp,0(s2)
 2e8:	0100                	addi	s0,sp,128
 2ea:	04090103          	lb	sp,64(s2)
 2ee:	0100                	addi	s0,sp,128
 2f0:	0105                	addi	sp,sp,1
 2f2:	0306                	slli	t1,t1,0x1
 2f4:	0901                	addi	s2,s2,0
 2f6:	0000                	unimp
 2f8:	0501                	addi	a0,a0,0
 2fa:	061a                	slli	a2,a2,0x6
 2fc:	04090203          	lb	tp,64(s2)
 300:	0100                	addi	s0,sp,128
 302:	0305                	addi	t1,t1,1
 304:	00090103          	lb	sp,0(s2)
 308:	0100                	addi	s0,sp,128
 30a:	00090103          	lb	sp,0(s2)
 30e:	0100                	addi	s0,sp,128
 310:	04090103          	lb	sp,64(s2)
 314:	0100                	addi	s0,sp,128
 316:	0105                	addi	sp,sp,1
 318:	0306                	slli	t1,t1,0x1
 31a:	0901                	addi	s2,s2,0
 31c:	0000                	unimp
 31e:	0501                	addi	a0,a0,0
 320:	061f 0203 0409      	0x4090203061f
 326:	0100                	addi	s0,sp,128
 328:	0305                	addi	t1,t1,1
 32a:	00090103          	lb	sp,0(s2)
 32e:	0100                	addi	s0,sp,128
 330:	1f05                	addi	t5,t5,-31
 332:	0306                	slli	t1,t1,0x1
 334:	097f                	0x97f
 336:	0000                	unimp
 338:	0501                	addi	a0,a0,0
 33a:	09010303          	lb	t1,144(sp) # b0b03f0 <tohost+0xb0903e8>
 33e:	0004                	0x4
 340:	0501                	addi	a0,a0,0
 342:	031f 097f 0008      	0x8097f031f
 348:	0501                	addi	a0,a0,0
 34a:	09010303          	lb	t1,144(sp)
 34e:	0004                	0x4
 350:	0601                	addi	a2,a2,0
 352:	04090103          	lb	sp,64(s2)
 356:	0100                	addi	s0,sp,128
 358:	0c090103          	lb	sp,192(s2)
 35c:	0100                	addi	s0,sp,128
 35e:	0c090103          	lb	sp,192(s2)
 362:	0100                	addi	s0,sp,128
 364:	00096b03          	0x96b03
 368:	0100                	addi	s0,sp,128
 36a:	00090103          	lb	sp,0(s2)
 36e:	0100                	addi	s0,sp,128
 370:	04090103          	lb	sp,64(s2)
 374:	0100                	addi	s0,sp,128
 376:	0306                	slli	t1,t1,0x1
 378:	00000913          	li	s2,0
 37c:	0601                	addi	a2,a2,0
 37e:	04090103          	lb	sp,64(s2)
 382:	0100                	addi	s0,sp,128
 384:	0c090103          	lb	sp,192(s2)
 388:	0100                	addi	s0,sp,128
 38a:	00096f03          	0x96f03
 38e:	0100                	addi	s0,sp,128
 390:	00090103          	lb	sp,0(s2)
 394:	0100                	addi	s0,sp,128
 396:	04090103          	lb	sp,64(s2)
 39a:	0100                	addi	s0,sp,128
 39c:	0306                	slli	t1,t1,0x1
 39e:	0000090f          	0x90f
 3a2:	0601                	addi	a2,a2,0
 3a4:	04090103          	lb	sp,64(s2)
 3a8:	0100                	addi	s0,sp,128
 3aa:	0c090103          	lb	sp,192(s2)
 3ae:	0100                	addi	s0,sp,128
 3b0:	00097303          	0x97303
 3b4:	0100                	addi	s0,sp,128
 3b6:	00090103          	lb	sp,0(s2)
 3ba:	0100                	addi	s0,sp,128
 3bc:	04090103          	lb	sp,64(s2)
 3c0:	0100                	addi	s0,sp,128
 3c2:	0306                	slli	t1,t1,0x1
 3c4:	0000090b          	0x90b
 3c8:	0601                	addi	a2,a2,0
 3ca:	04090103          	lb	sp,64(s2)
 3ce:	0100                	addi	s0,sp,128
 3d0:	097efc03          	0x97efc03
 3d4:	0000                	unimp
 3d6:	0301                	addi	t1,t1,0
 3d8:	0902                	c.slli64	s2
 3da:	000c                	0xc
 3dc:	0301                	addi	t1,t1,0
 3de:	00090183          	lb	gp,0(s2)
 3e2:	0100                	addi	s0,sp,128
 3e4:	1305                	addi	t1,t1,-31
 3e6:	097f9803          	lh	a6,151(t6)
 3ea:	0000                	unimp
 3ec:	0501                	addi	a0,a0,0
 3ee:	04020003          	lb	zero,64(tp) # 47c22 <tohost+0x27c1a>
 3f2:	0301                	addi	t1,t1,0
 3f4:	00ea                	slli	ra,ra,0x1a
 3f6:	0809                	addi	a6,a6,2
 3f8:	0100                	addi	s0,sp,128
 3fa:	0b05                	addi	s6,s6,1
 3fc:	0200                	addi	s0,sp,256
 3fe:	0104                	addi	s1,sp,128
 400:	00090003          	lb	zero,0(s2)
 404:	0100                	addi	s0,sp,128
 406:	0805                	addi	a6,a6,1
 408:	0200                	addi	s0,sp,256
 40a:	0104                	addi	s1,sp,128
 40c:	00090003          	lb	zero,0(s2)
 410:	0100                	addi	s0,sp,128
 412:	1a05                	addi	s4,s4,-31
 414:	04091703          	lh	a4,64(s2)
 418:	0100                	addi	s0,sp,128
 41a:	1c05                	addi	s8,s8,-31
 41c:	00090003          	lb	zero,0(s2)
 420:	0100                	addi	s0,sp,128
 422:	0105                	addi	sp,sp,1
 424:	0306                	slli	t1,t1,0x1
 426:	0900                	addi	s0,sp,144
 428:	0008                	0x8
 42a:	0501                	addi	a0,a0,0
 42c:	0203061b          	0x203061b
 430:	0409                	addi	s0,s0,2
 432:	0100                	addi	s0,sp,128
 434:	1305                	addi	t1,t1,-31
 436:	0306                	slli	t1,t1,0x1
 438:	0905                	addi	s2,s2,1
 43a:	0000                	unimp
 43c:	0501                	addi	a0,a0,0
 43e:	04020003          	lb	zero,64(tp) # 40 <_min_stack-0x7c0>
 442:	0601                	addi	a2,a2,0
 444:	04097c03          	0x4097c03
 448:	0100                	addi	s0,sp,128
 44a:	0200                	addi	s0,sp,256
 44c:	0104                	addi	s1,sp,128
 44e:	00090103          	lb	sp,0(s2)
 452:	0100                	addi	s0,sp,128
 454:	0200                	addi	s0,sp,256
 456:	0104                	addi	s1,sp,128
 458:	00090203          	lb	tp,0(s2)
 45c:	0100                	addi	s0,sp,128
 45e:	0505                	addi	a0,a0,1
 460:	0200                	addi	s0,sp,256
 462:	0104                	addi	s1,sp,128
 464:	00090103          	lb	sp,0(s2)
 468:	0100                	addi	s0,sp,128
 46a:	1305                	addi	t1,t1,-31
 46c:	0200                	addi	s0,sp,256
 46e:	0104                	addi	s1,sp,128
 470:	0306                	slli	t1,t1,0x1
 472:	0900                	addi	s0,sp,144
 474:	0000                	unimp
 476:	0501                	addi	a0,a0,0
 478:	0005                	c.nop	1
 47a:	0402                	c.slli64	s0
 47c:	0601                	addi	a2,a2,0
 47e:	04090103          	lb	sp,64(s2)
 482:	0100                	addi	s0,sp,128
 484:	1205                	addi	tp,tp,-31
 486:	0200                	addi	s0,sp,256
 488:	0104                	addi	s1,sp,128
 48a:	0306                	slli	t1,t1,0x1
 48c:	0900                	addi	s0,sp,144
 48e:	0000                	unimp
 490:	0501                	addi	a0,a0,0
 492:	0402000b          	0x402000b
 496:	0601                	addi	a2,a2,0
 498:	04090103          	lb	sp,64(s2)
 49c:	0100                	addi	s0,sp,128
 49e:	1d05                	addi	s10,s10,-31
 4a0:	0200                	addi	s0,sp,256
 4a2:	0104                	addi	s1,sp,128
 4a4:	0306                	slli	t1,t1,0x1
 4a6:	0900                	addi	s0,sp,144
 4a8:	0000                	unimp
 4aa:	0501                	addi	a0,a0,0
 4ac:	04020003          	lb	zero,64(tp) # 40 <_min_stack-0x7c0>
 4b0:	0301                	addi	t1,t1,0
 4b2:	0900                	addi	s0,sp,144
 4b4:	0004                	0x4
 4b6:	0501                	addi	a0,a0,0
 4b8:	0301                	addi	t1,t1,0
 4ba:	00040903          	lb	s2,0(s0) # 18000 <_stack_len+0x17000>
 4be:	0501                	addi	a0,a0,0
 4c0:	0628                	addi	a0,sp,776
 4c2:	04090203          	lb	tp,64(s2)
 4c6:	0100                	addi	s0,sp,128
 4c8:	0305                	addi	t1,t1,1
 4ca:	00090103          	lb	sp,0(s2)
 4ce:	0100                	addi	s0,sp,128
 4d0:	0c090103          	lb	sp,192(s2)
 4d4:	0100                	addi	s0,sp,128
 4d6:	04090103          	lb	sp,64(s2)
 4da:	0100                	addi	s0,sp,128
 4dc:	0105                	addi	sp,sp,1
 4de:	0306                	slli	t1,t1,0x1
 4e0:	0901                	addi	s2,s2,0
 4e2:	0004                	0x4
 4e4:	0501                	addi	a0,a0,0
 4e6:	63030627          	0x63030627
 4ea:	0409                	addi	s0,s0,2
 4ec:	0100                	addi	s0,sp,128
 4ee:	0305                	addi	t1,t1,1
 4f0:	00090103          	lb	sp,0(s2)
 4f4:	0100                	addi	s0,sp,128
 4f6:	2705                	jal	c16 <_min_stack+0x416>
 4f8:	0306                	slli	t1,t1,0x1
 4fa:	097f                	0x97f
 4fc:	0000                	unimp
 4fe:	0501                	addi	a0,a0,0
 500:	0310                	addi	a2,sp,384
 502:	0901                	addi	s2,s2,0
 504:	0010                	0x10
 506:	0501                	addi	a0,a0,0
 508:	01030603          	lb	a2,16(t1)
 50c:	1809                	addi	a6,a6,-30
 50e:	0100                	addi	s0,sp,128
 510:	1205                	addi	tp,tp,-31
 512:	0306                	slli	t1,t1,0x1
 514:	0900                	addi	s0,sp,144
 516:	0000                	unimp
 518:	0501                	addi	a0,a0,0
 51a:	097e0327          	0x97e0327
 51e:	0008                	0x8
 520:	0501                	addi	a0,a0,0
 522:	0312                	slli	t1,t1,0x4
 524:	0902                	c.slli64	s2
 526:	0008                	0x8
 528:	0501                	addi	a0,a0,0
 52a:	02030603          	lb	a2,32(t1)
 52e:	0809                	addi	a6,a6,2
 530:	0100                	addi	s0,sp,128
 532:	00097703          	0x97703
 536:	0100                	addi	s0,sp,128
 538:	1b05                	addi	s6,s6,-31
 53a:	0306                	slli	t1,t1,0x1
 53c:	0900                	addi	s0,sp,144
 53e:	0000                	unimp
 540:	0501                	addi	a0,a0,0
 542:	01030603          	lb	a2,16(t1)
 546:	0409                	addi	s0,s0,2
 548:	0100                	addi	s0,sp,128
 54a:	00090103          	lb	sp,0(s2)
 54e:	0100                	addi	s0,sp,128
 550:	1005                	c.nop	-31
 552:	0306                	slli	t1,t1,0x1
 554:	097f                	0x97f
 556:	0000                	unimp
 558:	0501                	addi	a0,a0,0
 55a:	09010303          	lb	t1,144(sp)
 55e:	000c                	0xc
 560:	0601                	addi	a2,a2,0
 562:	08090903          	lb	s2,128(s2)
 566:	0100                	addi	s0,sp,128
 568:	08090203          	lb	tp,128(s2)
 56c:	0100                	addi	s0,sp,128
 56e:	0105                	addi	sp,sp,1
 570:	0306                	slli	t1,t1,0x1
 572:	0901                	addi	s2,s2,0
 574:	0008                	0x8
 576:	0501                	addi	a0,a0,0
 578:	0621                	addi	a2,a2,8
 57a:	14091603          	lh	a2,320(s2)
 57e:	0100                	addi	s0,sp,128
 580:	2305                	jal	aa0 <_min_stack+0x2a0>
 582:	00090003          	lb	zero,0(s2)
 586:	0100                	addi	s0,sp,128
 588:	2a05                	jal	6b8 <_min_stack-0x148>
 58a:	0306                	slli	t1,t1,0x1
 58c:	0900                	addi	s0,sp,144
 58e:	0000                	unimp
 590:	0501                	addi	a0,a0,0
 592:	0301                	addi	t1,t1,0
 594:	0900                	addi	s0,sp,144
 596:	0010                	0x10
 598:	0501                	addi	a0,a0,0
 59a:	0621                	addi	a2,a2,8
 59c:	04090403          	lb	s0,64(s2)
 5a0:	0100                	addi	s0,sp,128
 5a2:	0305                	addi	t1,t1,1
 5a4:	00090103          	lb	sp,0(s2)
 5a8:	0100                	addi	s0,sp,128
 5aa:	2105                	jal	9ca <_min_stack+0x1ca>
 5ac:	0306                	slli	t1,t1,0x1
 5ae:	097f                	0x97f
 5b0:	0000                	unimp
 5b2:	0501                	addi	a0,a0,0
 5b4:	09010303          	lb	t1,144(sp)
 5b8:	0008                	0x8
 5ba:	0501                	addi	a0,a0,0
 5bc:	0321                	addi	t1,t1,8
 5be:	097f                	0x97f
 5c0:	0008                	0x8
 5c2:	0501                	addi	a0,a0,0
 5c4:	09010303          	lb	t1,144(sp)
 5c8:	0004                	0x4
 5ca:	0501                	addi	a0,a0,0
 5cc:	0321                	addi	t1,t1,8
 5ce:	097f                	0x97f
 5d0:	0004                	0x4
 5d2:	0501                	addi	a0,a0,0
 5d4:	09010303          	lb	t1,144(sp)
 5d8:	0004                	0x4
 5da:	0601                	addi	a2,a2,0
 5dc:	04095703          	lhu	a4,64(s2)
 5e0:	0100                	addi	s0,sp,128
 5e2:	2105                	jal	a02 <_min_stack+0x202>
 5e4:	0306                	slli	t1,t1,0x1
 5e6:	0928                	addi	a0,sp,152
 5e8:	0000                	unimp
 5ea:	0501                	addi	a0,a0,0
 5ec:	0958031b          	0x958031b
 5f0:	003c                	addi	a5,sp,8
 5f2:	0501                	addi	a0,a0,0
 5f4:	01030603          	lb	a2,16(t1)
 5f8:	0409                	addi	s0,s0,2
 5fa:	0100                	addi	s0,sp,128
 5fc:	00090103          	lb	sp,0(s2)
 600:	0100                	addi	s0,sp,128
 602:	1005                	c.nop	-31
 604:	0306                	slli	t1,t1,0x1
 606:	097f                	0x97f
 608:	0000                	unimp
 60a:	0501                	addi	a0,a0,0
 60c:	09010303          	lb	t1,144(sp)
 610:	000c                	0xc
 612:	0601                	addi	a2,a2,0
 614:	08092803          	lw	a6,128(s2)
 618:	0100                	addi	s0,sp,128
 61a:	0f05                	addi	t5,t5,1
 61c:	0306                	slli	t1,t1,0x1
 61e:	0900                	addi	s0,sp,144
 620:	0000                	unimp
 622:	0501                	addi	a0,a0,0
 624:	0301                	addi	t1,t1,0
 626:	0901                	addi	s2,s2,0
 628:	0010                	0x10
 62a:	0501                	addi	a0,a0,0
 62c:	097f030f          	0x97f030f
 630:	0004                	0x4
 632:	0501                	addi	a0,a0,0
 634:	0301                	addi	t1,t1,0
 636:	0901                	addi	s2,s2,0
 638:	0014                	0x14
 63a:	0501                	addi	a0,a0,0
 63c:	0634                	addi	a3,sp,776
 63e:	4c090303          	lb	t1,1216(s2)
 642:	0100                	addi	s0,sp,128
 644:	0305                	addi	t1,t1,1
 646:	00090103          	lb	sp,0(s2)
 64a:	0100                	addi	s0,sp,128
 64c:	3405                	jal	6c <_min_stack-0x794>
 64e:	0306                	slli	t1,t1,0x1
 650:	097f                	0x97f
 652:	0000                	unimp
 654:	0501                	addi	a0,a0,0
 656:	0901030f          	0x901030f
 65a:	0008                	0x8
 65c:	0501                	addi	a0,a0,0
 65e:	0334                	addi	a3,sp,392
 660:	097f                	0x97f
 662:	0008                	0x8
 664:	0501                	addi	a0,a0,0
 666:	0901030f          	0x901030f
 66a:	0004                	0x4
 66c:	0501                	addi	a0,a0,0
 66e:	0334                	addi	a3,sp,392
 670:	097f                	0x97f
 672:	0004                	0x4
 674:	0501                	addi	a0,a0,0
 676:	0901030f          	0x901030f
 67a:	0004                	0x4
 67c:	0501                	addi	a0,a0,0
 67e:	0334                	addi	a3,sp,392
 680:	097f                	0x97f
 682:	0004                	0x4
 684:	0501                	addi	a0,a0,0
 686:	0901030f          	0x901030f
 68a:	0004                	0x4
 68c:	0501                	addi	a0,a0,0
 68e:	0334                	addi	a3,sp,392
 690:	097f                	0x97f
 692:	0004                	0x4
 694:	0501                	addi	a0,a0,0
 696:	0901030f          	0x901030f
 69a:	0030                	addi	a2,sp,8
 69c:	0501                	addi	a0,a0,0
 69e:	01030603          	lb	a2,16(t1)
 6a2:	1009                	c.nop	-30
 6a4:	0100                	addi	s0,sp,128
 6a6:	1305                	addi	t1,t1,-31
 6a8:	0306                	slli	t1,t1,0x1
 6aa:	0900                	addi	s0,sp,144
 6ac:	0000                	unimp
 6ae:	0501                	addi	a0,a0,0
 6b0:	01030603          	lb	a2,16(t1)
 6b4:	0809                	addi	a6,a6,2
 6b6:	0100                	addi	s0,sp,128
 6b8:	0105                	addi	sp,sp,1
 6ba:	0306                	slli	t1,t1,0x1
 6bc:	0901                	addi	s2,s2,0
 6be:	000c                	0xc
 6c0:	0501                	addi	a0,a0,0
 6c2:	0634                	addi	a3,sp,776
 6c4:	48090303          	lb	t1,1152(s2)
 6c8:	0100                	addi	s0,sp,128
 6ca:	0305                	addi	t1,t1,1
 6cc:	00090103          	lb	sp,0(s2)
 6d0:	0100                	addi	s0,sp,128
 6d2:	3405                	jal	f2 <_min_stack-0x70e>
 6d4:	0306                	slli	t1,t1,0x1
 6d6:	097f                	0x97f
 6d8:	0000                	unimp
 6da:	0501                	addi	a0,a0,0
 6dc:	0901030f          	0x901030f
 6e0:	0008                	0x8
 6e2:	0501                	addi	a0,a0,0
 6e4:	0334                	addi	a3,sp,392
 6e6:	097f                	0x97f
 6e8:	0008                	0x8
 6ea:	0501                	addi	a0,a0,0
 6ec:	0901030f          	0x901030f
 6f0:	0004                	0x4
 6f2:	0501                	addi	a0,a0,0
 6f4:	0334                	addi	a3,sp,392
 6f6:	097f                	0x97f
 6f8:	0004                	0x4
 6fa:	0501                	addi	a0,a0,0
 6fc:	0901030f          	0x901030f
 700:	0004                	0x4
 702:	0501                	addi	a0,a0,0
 704:	0334                	addi	a3,sp,392
 706:	097f                	0x97f
 708:	0004                	0x4
 70a:	0501                	addi	a0,a0,0
 70c:	0901030f          	0x901030f
 710:	0004                	0x4
 712:	0501                	addi	a0,a0,0
 714:	0334                	addi	a3,sp,392
 716:	097f                	0x97f
 718:	0004                	0x4
 71a:	0501                	addi	a0,a0,0
 71c:	0901030f          	0x901030f
 720:	0030                	addi	a2,sp,8
 722:	0501                	addi	a0,a0,0
 724:	01030603          	lb	a2,16(t1)
 728:	1009                	c.nop	-30
 72a:	0100                	addi	s0,sp,128
 72c:	1305                	addi	t1,t1,-31
 72e:	0306                	slli	t1,t1,0x1
 730:	0900                	addi	s0,sp,144
 732:	0000                	unimp
 734:	0501                	addi	a0,a0,0
 736:	01030603          	lb	a2,16(t1)
 73a:	0809                	addi	a6,a6,2
 73c:	0100                	addi	s0,sp,128
 73e:	0105                	addi	sp,sp,1
 740:	0306                	slli	t1,t1,0x1
 742:	0901                	addi	s2,s2,0
 744:	000c                	0xc
 746:	0901                	addi	s2,s2,0
 748:	0048                	addi	a0,sp,4
 74a:	0100                	addi	s0,sp,128
 74c:	d801                	beqz	s0,65c <_min_stack-0x1a4>
 74e:	0001                	nop
 750:	0300                	addi	s0,sp,384
 752:	5c00                	lw	s0,56(s0)
 754:	0001                	nop
 756:	0100                	addi	s0,sp,128
 758:	fb01                	bnez	a4,668 <_min_stack-0x198>
 75a:	0d0e                	slli	s10,s10,0x3
 75c:	0100                	addi	s0,sp,128
 75e:	0101                	addi	sp,sp,0
 760:	0001                	nop
 762:	0000                	unimp
 764:	0001                	nop
 766:	0100                	addi	s0,sp,128
 768:	74706f2f          	0x74706f2f
 76c:	776f6c2f          	0x776f6c2f
 770:	6972                	flw	fs2,28(sp)
 772:	742d6373          	csrrsi	t1,0x742,26
 776:	636c6f6f          	jal	t5,c6dac <tohost+0xa6da4>
 77a:	6168                	flw	fa0,68(a0)
 77c:	6e69                	lui	t3,0x1a
 77e:	672d                	lui	a4,0xb
 780:	722d6363          	bltu	s10,sp,ea6 <_min_stack+0x6a6>
 784:	3376                	fld	ft6,376(sp)
 786:	6932                	flw	fs2,12(sp)
 788:	636d                	lui	t1,0x1b
 78a:	322d                	jal	b4 <_min_stack-0x74c>
 78c:	3230                	fld	fa2,96(a2)
 78e:	3030                	fld	fa2,96(s0)
 790:	3236                	fld	ft4,360(sp)
 792:	2d36                	fld	fs10,328(sp)
 794:	2f31                	jal	eb0 <_min_stack+0x6b0>
 796:	696c                	flw	fa1,84(a0)
 798:	2f62                	fld	ft10,24(sp)
 79a:	2f636367          	0x2f636367
 79e:	6972                	flw	fs2,28(sp)
 7a0:	33766373          	csrrsi	t1,mhpmevent23,12
 7a4:	2d32                	fld	fs10,264(sp)
 7a6:	6e75                	lui	t3,0x1d
 7a8:	776f6e6b          	0x776f6e6b
 7ac:	2d6e                	fld	fs10,216(sp)
 7ae:	6c65                	lui	s8,0x19
 7b0:	2f66                	fld	ft10,88(sp)
 7b2:	2e39                	jal	ad0 <_min_stack+0x2d0>
 7b4:	2e32                	fld	ft8,264(sp)
 7b6:	2f30                	fld	fa2,88(a4)
 7b8:	6e69                	lui	t3,0x1a
 7ba:	64756c63          	bltu	a0,t2,e12 <_min_stack+0x612>
 7be:	0065                	c.nop	25
 7c0:	74706f2f          	0x74706f2f
 7c4:	776f6c2f          	0x776f6c2f
 7c8:	6972                	flw	fs2,28(sp)
 7ca:	742d6373          	csrrsi	t1,0x742,26
 7ce:	636c6f6f          	jal	t5,c6e04 <tohost+0xa6dfc>
 7d2:	6168                	flw	fa0,68(a0)
 7d4:	6e69                	lui	t3,0x1a
 7d6:	672d                	lui	a4,0xb
 7d8:	722d6363          	bltu	s10,sp,efe <_min_stack+0x6fe>
 7dc:	3376                	fld	ft6,376(sp)
 7de:	6932                	flw	fs2,12(sp)
 7e0:	636d                	lui	t1,0x1b
 7e2:	322d                	jal	10c <_min_stack-0x6f4>
 7e4:	3230                	fld	fa2,96(a2)
 7e6:	3030                	fld	fa2,96(s0)
 7e8:	3236                	fld	ft4,360(sp)
 7ea:	2d36                	fld	fs10,328(sp)
 7ec:	2f31                	jal	f08 <_min_stack+0x708>
 7ee:	6972                	flw	fs2,28(sp)
 7f0:	33766373          	csrrsi	t1,mhpmevent23,12
 7f4:	2d32                	fld	fs10,264(sp)
 7f6:	6e75                	lui	t3,0x1d
 7f8:	776f6e6b          	0x776f6e6b
 7fc:	2d6e                	fld	fs10,216(sp)
 7fe:	6c65                	lui	s8,0x19
 800:	2f66                	fld	ft10,88(sp)
 802:	2d737973          	csrrci	s2,0x2d7,6
 806:	6e69                	lui	t3,0x1a
 808:	64756c63          	bltu	a0,t2,e60 <_min_stack+0x660>
 80c:	2f65                	jal	fc4 <_min_stack+0x7c4>
 80e:	00737973          	csrrci	s2,0x7,6
 812:	6d6f682f          	0x6d6f682f
 816:	2f65                	jal	fce <_min_stack+0x7ce>
 818:	7375                	lui	t1,0xffffd
 81a:	7265                	lui	tp,0xffff9
 81c:	776f442f          	0x776f442f
 820:	6c6e                	flw	fs8,216(sp)
 822:	7364616f          	jal	sp,46f58 <tohost+0x26f50>
 826:	65706f2f          	0x65706f2f
 82a:	746e                	flw	fs0,248(sp)
 82c:	7469                	lui	s0,0xffffa
 82e:	6e61                	lui	t3,0x18
 830:	665f 726f 2f6b      	0x2f6b726f665f
 836:	7768                	flw	fa0,108(a4)
 838:	2f70692f          	0x2f70692f
 83c:	7369                	lui	t1,0xffffa
 83e:	2f65                	jal	ff6 <_min_stack+0x7f6>
 840:	632f7773          	csrrci	a4,0x632,30
 844:	6f6d6d6f          	jal	s10,d6f3a <tohost+0xb6f32>
 848:	006e                	c.slli	zero,0x1b
 84a:	6300                	flw	fs0,0(a4)
 84c:	3065726f          	jal	tp,57b52 <tohost+0x37b4a>
 850:	6d5f 6961 2e6e      	0x2e6e69616d5f
 856:	00000063          	beqz	zero,856 <_min_stack+0x56>
 85a:	7300                	flw	fs0,32(a4)
 85c:	6474                	flw	fa3,76(s0)
 85e:	6e69                	lui	t3,0x1a
 860:	2d74                	fld	fa3,216(a0)
 862:	2e636367          	0x2e636367
 866:	0068                	addi	a0,sp,12
 868:	0001                	nop
 86a:	6c00                	flw	fs0,24(s0)
 86c:	2e6b636f          	jal	t1,b6b52 <tohost+0x96b4a>
 870:	0068                	addi	a0,sp,12
 872:	0002                	c.slli64	zero
 874:	5f00                	lw	s0,56(a4)
 876:	7974                	flw	fa3,116(a0)
 878:	6570                	flw	fa2,76(a0)
 87a:	00682e73          	csrrs	t3,0x6,a6
 87e:	0002                	c.slli64	zero
 880:	7300                	flw	fs0,32(a4)
 882:	6474                	flw	fa3,76(s0)
 884:	6564                	flw	fs1,76(a0)
 886:	2e66                	fld	ft8,88(sp)
 888:	0068                	addi	a0,sp,12
 88a:	0001                	nop
 88c:	7200                	flw	fs0,32(a2)
 88e:	6565                	lui	a0,0x19
 890:	746e                	flw	fs0,248(sp)
 892:	682e                	flw	fa6,200(sp)
 894:	0200                	addi	s0,sp,256
 896:	0000                	unimp
 898:	706d6973          	csrrsi	s2,0x706,26
 89c:	656c                	flw	fa1,76(a0)
 89e:	735f 7379 6574      	0x65747379735f
 8a4:	5f6d                	li	t5,-5
 8a6:	6d6d6f63          	bltu	s10,s6,f84 <_min_stack+0x784>
 8aa:	682e6e6f          	jal	t3,e6f2c <tohost+0xc6f24>
 8ae:	0300                	addi	s0,sp,384
 8b0:	0000                	unimp
 8b2:	0500                	addi	s0,sp,640
 8b4:	0020                	addi	s0,sp,8
 8b6:	0205                	addi	tp,tp,1
 8b8:	05cc                	addi	a1,sp,708
 8ba:	1000                	addi	s0,sp,32
 8bc:	0519                	addi	a0,a0,6
 8be:	0321                	addi	t1,t1,8
 8c0:	0900                	addi	s0,sp,144
 8c2:	0000                	unimp
 8c4:	0901                	addi	s2,s2,0
 8c6:	0004                	0x4
 8c8:	0100                	addi	s0,sp,128
 8ca:	0501                	addi	a0,a0,0
 8cc:	0021                	c.nop	8
 8ce:	0205                	addi	tp,tp,1
 8d0:	06a8                	addi	a0,sp,840
 8d2:	1000                	addi	s0,sp,32
 8d4:	05011203          	lh	tp,80(sp)
 8d8:	09010303          	lb	t1,144(sp)
 8dc:	0000                	unimp
 8de:	0501                	addi	a0,a0,0
 8e0:	060c                	addi	a1,sp,768
 8e2:	00090003          	lb	zero,0(s2)
 8e6:	0100                	addi	s0,sp,128
 8e8:	0705                	addi	a4,a4,1
 8ea:	0c090203          	lb	tp,192(s2)
 8ee:	0100                	addi	s0,sp,128
 8f0:	0305                	addi	t1,t1,1
 8f2:	0200                	addi	s0,sp,256
 8f4:	0104                	addi	s1,sp,128
 8f6:	0306                	slli	t1,t1,0x1
 8f8:	097f                	0x97f
 8fa:	0004                	0x4
 8fc:	0501                	addi	a0,a0,0
 8fe:	04020007          	0x4020007
 902:	0301                	addi	t1,t1,0
 904:	0901                	addi	s2,s2,0
 906:	0000                	unimp
 908:	0501                	addi	a0,a0,0
 90a:	000d                	c.nop	3
 90c:	0402                	c.slli64	s0
 90e:	0601                	addi	a2,a2,0
 910:	04090003          	lb	zero,64(s2)
 914:	0100                	addi	s0,sp,128
 916:	0805                	addi	a6,a6,1
 918:	0200                	addi	s0,sp,256
 91a:	0104                	addi	s1,sp,128
 91c:	0306                	slli	t1,t1,0x1
 91e:	097f                	0x97f
 920:	0008                	0x8
 922:	0901                	addi	s2,s2,0
 924:	0004                	0x4
 926:	0100                	addi	s0,sp,128
 928:	f001                	bnez	s0,828 <_min_stack+0x28>
 92a:	0001                	nop
 92c:	0300                	addi	s0,sp,384
 92e:	5500                	lw	s0,40(a0)
 930:	0000                	unimp
 932:	0100                	addi	s0,sp,128
 934:	fb01                	bnez	a4,844 <_min_stack+0x44>
 936:	0d0e                	slli	s10,s10,0x3
 938:	0100                	addi	s0,sp,128
 93a:	0101                	addi	sp,sp,0
 93c:	0001                	nop
 93e:	0000                	unimp
 940:	0001                	nop
 942:	0100                	addi	s0,sp,128
 944:	6d6f682f          	0x6d6f682f
 948:	2f65                	jal	1100 <_stack_len+0x100>
 94a:	7375                	lui	t1,0xffffd
 94c:	7265                	lui	tp,0xffff9
 94e:	776f442f          	0x776f442f
 952:	6c6e                	flw	fs8,216(sp)
 954:	7364616f          	jal	sp,4708a <tohost+0x27082>
 958:	65706f2f          	0x65706f2f
 95c:	746e                	flw	fs0,248(sp)
 95e:	7469                	lui	s0,0xffffa
 960:	6e61                	lui	t3,0x18
 962:	665f 726f 2f6b      	0x2f6b726f665f
 968:	7768                	flw	fa0,108(a4)
 96a:	2f70692f          	0x2f70692f
 96e:	7369                	lui	t1,0xffffa
 970:	2f65                	jal	1128 <_stack_len+0x128>
 972:	632f7773          	csrrci	a4,0x632,30
 976:	6f6d6d6f          	jal	s10,d706c <tohost+0xb7064>
 97a:	006e                	c.slli	zero,0x1b
 97c:	6300                	flw	fs0,0(a4)
 97e:	7472                	flw	fs0,60(sp)
 980:	2e30                	fld	fa2,88(a2)
 982:	00010053          	fadd.s	ft0,ft2,ft0,rne
 986:	0000                	unimp
 988:	0500                	addi	s0,sp,640
 98a:	d002                	sw	zero,32(sp)
 98c:	0005                	c.nop	1
 98e:	0310                	addi	a2,sp,384
 990:	0103010b          	0x103010b
 994:	0409                	addi	s0,s0,2
 996:	0100                	addi	s0,sp,128
 998:	04090103          	lb	sp,64(s2)
 99c:	0100                	addi	s0,sp,128
 99e:	04090103          	lb	sp,64(s2)
 9a2:	0100                	addi	s0,sp,128
 9a4:	04090103          	lb	sp,64(s2)
 9a8:	0100                	addi	s0,sp,128
 9aa:	04090103          	lb	sp,64(s2)
 9ae:	0100                	addi	s0,sp,128
 9b0:	04090103          	lb	sp,64(s2)
 9b4:	0100                	addi	s0,sp,128
 9b6:	04090103          	lb	sp,64(s2)
 9ba:	0100                	addi	s0,sp,128
 9bc:	04090103          	lb	sp,64(s2)
 9c0:	0100                	addi	s0,sp,128
 9c2:	04090103          	lb	sp,64(s2)
 9c6:	0100                	addi	s0,sp,128
 9c8:	04090103          	lb	sp,64(s2)
 9cc:	0100                	addi	s0,sp,128
 9ce:	04090103          	lb	sp,64(s2)
 9d2:	0100                	addi	s0,sp,128
 9d4:	04090103          	lb	sp,64(s2)
 9d8:	0100                	addi	s0,sp,128
 9da:	04090103          	lb	sp,64(s2)
 9de:	0100                	addi	s0,sp,128
 9e0:	04090103          	lb	sp,64(s2)
 9e4:	0100                	addi	s0,sp,128
 9e6:	04090103          	lb	sp,64(s2)
 9ea:	0100                	addi	s0,sp,128
 9ec:	04090103          	lb	sp,64(s2)
 9f0:	0100                	addi	s0,sp,128
 9f2:	04090103          	lb	sp,64(s2)
 9f6:	0100                	addi	s0,sp,128
 9f8:	04090103          	lb	sp,64(s2)
 9fc:	0100                	addi	s0,sp,128
 9fe:	04090103          	lb	sp,64(s2)
 a02:	0100                	addi	s0,sp,128
 a04:	04090103          	lb	sp,64(s2)
 a08:	0100                	addi	s0,sp,128
 a0a:	04090103          	lb	sp,64(s2)
 a0e:	0100                	addi	s0,sp,128
 a10:	04090103          	lb	sp,64(s2)
 a14:	0100                	addi	s0,sp,128
 a16:	04090103          	lb	sp,64(s2)
 a1a:	0100                	addi	s0,sp,128
 a1c:	04090103          	lb	sp,64(s2)
 a20:	0100                	addi	s0,sp,128
 a22:	04090103          	lb	sp,64(s2)
 a26:	0100                	addi	s0,sp,128
 a28:	04090103          	lb	sp,64(s2)
 a2c:	0100                	addi	s0,sp,128
 a2e:	04090103          	lb	sp,64(s2)
 a32:	0100                	addi	s0,sp,128
 a34:	04090103          	lb	sp,64(s2)
 a38:	0100                	addi	s0,sp,128
 a3a:	04090103          	lb	sp,64(s2)
 a3e:	0100                	addi	s0,sp,128
 a40:	04090103          	lb	sp,64(s2)
 a44:	0100                	addi	s0,sp,128
 a46:	04090303          	lb	t1,64(s2)
 a4a:	0100                	addi	s0,sp,128
 a4c:	08090603          	lb	a2,128(s2)
 a50:	0100                	addi	s0,sp,128
 a52:	08090103          	lb	sp,128(s2)
 a56:	0100                	addi	s0,sp,128
 a58:	08090203          	lb	tp,128(s2)
 a5c:	0100                	addi	s0,sp,128
 a5e:	04090303          	lb	t1,64(s2)
 a62:	0100                	addi	s0,sp,128
 a64:	04090103          	lb	sp,64(s2)
 a68:	0100                	addi	s0,sp,128
 a6a:	04090103          	lb	sp,64(s2)
 a6e:	0100                	addi	s0,sp,128
 a70:	04090603          	lb	a2,64(s2)
 a74:	0100                	addi	s0,sp,128
 a76:	04090103          	lb	sp,64(s2)
 a7a:	0100                	addi	s0,sp,128
 a7c:	04090103          	lb	sp,64(s2)
 a80:	0100                	addi	s0,sp,128
 a82:	04090503          	lb	a0,64(s2)
 a86:	0100                	addi	s0,sp,128
 a88:	08090103          	lb	sp,128(s2)
 a8c:	0100                	addi	s0,sp,128
 a8e:	04090103          	lb	sp,64(s2)
 a92:	0100                	addi	s0,sp,128
 a94:	04090403          	lb	s0,64(s2)
 a98:	0100                	addi	s0,sp,128
 a9a:	04090103          	lb	sp,64(s2)
 a9e:	0100                	addi	s0,sp,128
 aa0:	04090303          	lb	t1,64(s2)
 aa4:	0100                	addi	s0,sp,128
 aa6:	04090303          	lb	t1,64(s2)
 aaa:	0100                	addi	s0,sp,128
 aac:	04090303          	lb	t1,64(s2)
 ab0:	0100                	addi	s0,sp,128
 ab2:	04090303          	lb	t1,64(s2)
 ab6:	0100                	addi	s0,sp,128
 ab8:	0409                	addi	s0,s0,2
 aba:	0000                	unimp
 abc:	0101                	addi	sp,sp,0
 abe:	0500                	addi	s0,sp,640
 ac0:	0002                	c.slli64	zero
 ac2:	0000                	unimp
 ac4:	0310                	addi	a2,sp,384
 ac6:	00e8                	addi	a0,sp,76
 ac8:	0301                	addi	t1,t1,0
 aca:	0901                	addi	s2,s2,0
 acc:	001c                	0x1c
 ace:	0301                	addi	t1,t1,0
 ad0:	0902                	c.slli64	s2
 ad2:	0004                	0x4
 ad4:	0301                	addi	t1,t1,0
 ad6:	0901                	addi	s2,s2,0
 ad8:	0004                	0x4
 ada:	0301                	addi	t1,t1,0
 adc:	0901                	addi	s2,s2,0
 ade:	0004                	0x4
 ae0:	0301                	addi	t1,t1,0
 ae2:	0901                	addi	s2,s2,0
 ae4:	0004                	0x4
 ae6:	0301                	addi	t1,t1,0
 ae8:	0901                	addi	s2,s2,0
 aea:	0004                	0x4
 aec:	0301                	addi	t1,t1,0
 aee:	0901                	addi	s2,s2,0
 af0:	0004                	0x4
 af2:	0301                	addi	t1,t1,0
 af4:	0901                	addi	s2,s2,0
 af6:	0004                	0x4
 af8:	0301                	addi	t1,t1,0
 afa:	0901                	addi	s2,s2,0
 afc:	0004                	0x4
 afe:	0301                	addi	t1,t1,0
 b00:	0901                	addi	s2,s2,0
 b02:	0004                	0x4
 b04:	0301                	addi	t1,t1,0
 b06:	0901                	addi	s2,s2,0
 b08:	0004                	0x4
 b0a:	0301                	addi	t1,t1,0
 b0c:	0904                	addi	s1,sp,144
 b0e:	0004                	0x4
 b10:	0301                	addi	t1,t1,0
 b12:	0904                	addi	s1,sp,144
 b14:	0038                	addi	a4,sp,8
 b16:	0901                	addi	s2,s2,0
 b18:	0004                	0x4
 b1a:	0100                	addi	s0,sp,128
 b1c:	01              	Address 0x0000000000000b1c is out of bounds.


Disassembly of section .debug_str:

00000000 <.debug_str>:
   0:	5f746567          	0x5f746567
   4:	636d                	lui	t1,0x1b
   6:	7561                	lui	a0,0xffff8
   8:	73006573          	csrrsi	a0,0x730,0
   c:	6d69                	lui	s10,0x1a
   e:	6c70                	flw	fa2,92(s0)
  10:	5f65                	li	t5,-7
  12:	7865                	lui	a6,0xffff9
  14:	61685f63          	bge	a6,s6,632 <_min_stack-0x1ce>
  18:	646e                	flw	fs0,216(sp)
  1a:	656c                	flw	fa1,76(a0)
  1c:	0072                	c.slli	zero,0x1c
  1e:	52474953          	0x52474953
  22:	0044                	addi	s1,sp,4
  24:	6370                	flw	fa2,68(a4)
  26:	746e756f          	jal	a0,e776c <tohost+0xc7764>
  2a:	655f 616e 6c62      	0x6c62616e655f
  30:	0065                	c.nop	25
  32:	72727563          	bgeu	tp,t2,75c <_min_stack-0xa4>
  36:	6e65                	lui	t3,0x19
  38:	5f74                	lw	a3,124(a4)
  3a:	6974                	flw	fa3,84(a0)
  3c:	656d                	lui	a0,0x1b
  3e:	5300                	lw	s0,32(a4)
  40:	4749                	li	a4,18
  42:	00544553          	fadd.s	fa0,fs0,ft5,rmm
  46:	43474953          	0x43474953
  4a:	524c                	lw	a1,36(a2)
  4c:	6900                	flw	fs0,16(a0)
  4e:	6370                	flw	fa2,68(a4)
  50:	5f31                	li	t5,-20
  52:	6168                	flw	fa0,68(a0)
  54:	646e                	flw	fs0,216(sp)
  56:	656c                	flw	fa1,76(a0)
  58:	0072                	c.slli	zero,0x1c
  5a:	6d6f682f          	0x6d6f682f
  5e:	2f65                	jal	816 <_min_stack+0x16>
  60:	7375                	lui	t1,0xffffd
  62:	7265                	lui	tp,0xffff9
  64:	776f442f          	0x776f442f
  68:	6c6e                	flw	fs8,216(sp)
  6a:	7364616f          	jal	sp,467a0 <tohost+0x26798>
  6e:	65706f2f          	0x65706f2f
  72:	746e                	flw	fs0,248(sp)
  74:	7469                	lui	s0,0xffffa
  76:	6e61                	lui	t3,0x18
  78:	665f 726f 2f6b      	0x2f6b726f665f
  7e:	7768                	flw	fa0,108(a4)
  80:	2f70692f          	0x2f70692f
  84:	7369                	lui	t1,0xffffa
  86:	2f65                	jal	83e <_min_stack+0x3e>
  88:	632f7773          	csrrci	a4,0x632,30
  8c:	6f6d6d6f          	jal	s10,d6782 <tohost+0xb677a>
  90:	2f6e                	fld	ft10,216(sp)
  92:	706d6973          	csrrsi	s2,0x706,26
  96:	656c                	flw	fa1,76(a0)
  98:	735f 7379 6574      	0x65747379735f
  9e:	5f6d                	li	t5,-5
  a0:	6d6d6f63          	bltu	s10,s6,77e <_min_stack-0x82>
  a4:	632e6e6f          	jal	t3,e66d6 <tohost+0xc66ce>
  a8:	7400                	flw	fs0,40(s0)
  aa:	6d69                	lui	s10,0x1a
  ac:	7265                	lui	tp,0xffff9
  ae:	655f 616e 6c62      	0x6c62616e655f
  b4:	0065                	c.nop	25
  b6:	6974                	flw	fa3,84(a0)
  b8:	656d                	lui	a0,0x1b
  ba:	5f72                	lw	t5,60(sp)
  bc:	6572                	flw	fa0,28(sp)
  be:	6461                	lui	s0,0x18
  c0:	7500                	flw	fs0,40(a0)
  c2:	6e69                	lui	t3,0x1a
  c4:	3674                	fld	fa3,232(a2)
  c6:	5f34                	lw	a3,120(a4)
  c8:	0074                	addi	a3,sp,12
  ca:	5049                	c.li	zero,-14
  cc:	49535f43          	fmadd.s	ft10,ft6,fs5,fs1,unknown
  d0:	74735f47          	0x74735f47
  d4:	7572                	flw	fa0,60(sp)
  d6:	745f7463          	bgeu	t5,t0,81e <_min_stack+0x1e>
  da:	4400                	lw	s0,8(s0)
  dc:	5441                	li	s0,-16
  de:	0041                	c.nop	16
  e0:	5f6d6973          	csrrsi	s2,0x5f6,26
  e4:	6168                	flw	fa0,68(a0)
  e6:	746c                	flw	fa1,108(s0)
  e8:	6900                	flw	fs0,16(a0)
  ea:	686e                	flw	fa6,216(sp)
  ec:	6269                	lui	tp,0x1a
  ee:	7469                	lui	s0,0xffffa
  f0:	765f 6c61 7500      	0x75006c61765f
  f6:	736e                	flw	ft6,248(sp)
  f8:	6769                	lui	a4,0x1a
  fa:	656e                	flw	fa0,216(sp)
  fc:	2064                	fld	fs1,192(s0)
  fe:	72616863          	bltu	sp,t1,82e <_min_stack+0x2e>
 102:	7000                	flw	fs0,32(s0)
 104:	6e756f63          	bltu	a0,t2,802 <_min_stack+0x2>
 108:	5f74                	lw	a3,124(a4)
 10a:	6572                	flw	fa0,28(sp)
 10c:	00746573          	csrrsi	a0,0x7,8
 110:	5049                	c.li	zero,-14
 112:	49535f43          	fmadd.s	ft10,ft6,fs5,fs1,unknown
 116:	00745f47          	fmsub.s	ft10,fs0,ft7,ft0,unknown
 11a:	726f6873          	csrrsi	a6,0x726,30
 11e:	2074                	fld	fa3,192(s0)
 120:	6e75                	lui	t3,0x1d
 122:	6e676973          	csrrsi	s2,0x6e6,14
 126:	6465                	lui	s0,0x19
 128:	6920                	flw	fs0,80(a0)
 12a:	746e                	flw	fs0,248(sp)
 12c:	7000                	flw	fs0,32(s0)
 12e:	7475                	lui	s0,0xffffd
 130:	72616863          	bltu	sp,t1,860 <_min_stack+0x60>
 134:	7400                	flw	fs0,40(s0)
 136:	6d69                	lui	s10,0x1a
 138:	6365                	lui	t1,0x19
 13a:	706d                	c.lui	zero,0xffffb
 13c:	755f 6470 7461      	0x74616470755f
 142:	0065                	c.nop	25
 144:	7069                	c.lui	zero,0xffffa
 146:	695f3063          	0x695f3063
 14a:	7172                	flw	ft2,60(sp)
 14c:	635f 746e 6600      	0x6600746e635f
 152:	6e69                	lui	t3,0x1a
 154:	6c61                	lui	s8,0x18
 156:	745f 6d69 0065      	0x656d69745f
 15c:	20554e47          	fmsub.s	ft8,fa0,ft5,ft4,rmm
 160:	20373143          	fmadd.s	ft2,fa4,ft3,ft4,rup
 164:	2e39                	jal	482 <_min_stack-0x37e>
 166:	2e32                	fld	ft8,264(sp)
 168:	2030                	fld	fa2,64(s0)
 16a:	6d2d                	lui	s10,0xb
 16c:	7261                	lui	tp,0xffff8
 16e:	723d6863          	bltu	s10,gp,89e <_min_stack+0x9e>
 172:	3376                	fld	ft6,376(sp)
 174:	6932                	flw	fs2,12(sp)
 176:	206d                	jal	220 <_min_stack-0x5e0>
 178:	6d2d                	lui	s10,0xb
 17a:	6261                	lui	tp,0x18
 17c:	3d69                	jal	16 <_min_stack-0x7ea>
 17e:	6c69                	lui	s8,0x1a
 180:	3370                	fld	fa2,224(a4)
 182:	2032                	fld	ft0,264(sp)
 184:	6d2d                	lui	s10,0xb
 186:	646f6d63          	bltu	t5,t1,7e0 <_min_stack-0x20>
 18a:	6c65                	lui	s8,0x19
 18c:	6d3d                	lui	s10,0xf
 18e:	6465                	lui	s0,0x19
 190:	6e61                	lui	t3,0x18
 192:	2079                	jal	220 <_min_stack-0x5e0>
 194:	672d                	lui	a4,0xb
 196:	2d20                	fld	fs0,88(a0)
 198:	2d20734f          	0x2d20734f
 19c:	7666                	flw	fa2,120(sp)
 19e:	7369                	lui	t1,0xffffa
 1a0:	6269                	lui	tp,0x1a
 1a2:	6c69                	lui	s8,0x1a
 1a4:	7469                	lui	s0,0xffffa
 1a6:	3d79                	jal	44 <_min_stack-0x7bc>
 1a8:	6968                	flw	fa0,84(a0)
 1aa:	6464                	flw	fs1,76(s0)
 1ac:	6e65                	lui	t3,0x19
 1ae:	2d20                	fld	fs0,88(a0)
 1b0:	6666                	flw	fa2,88(sp)
 1b2:	6572                	flw	fa0,28(sp)
 1b4:	7365                	lui	t1,0xffff9
 1b6:	6174                	flw	fa3,68(a0)
 1b8:	646e                	flw	fs0,216(sp)
 1ba:	6e69                	lui	t3,0x1a
 1bc:	4f4c0067          	jr	1268(s8) # 1a4f4 <_stack_len+0x194f4>
 1c0:	53004b43          	fmadd.d	fs6,ft0,fa6,fa0,rmm
 1c4:	4749                	li	a4,18
 1c6:	69740053          	0x69740053
 1ca:	656d                	lui	a0,0x1b
 1cc:	625f 7361 0065      	0x657361625f
 1d2:	6d6f682f          	0x6d6f682f
 1d6:	2f65                	jal	98e <_min_stack+0x18e>
 1d8:	7375                	lui	t1,0xffffd
 1da:	7265                	lui	tp,0xffff9
 1dc:	776f442f          	0x776f442f
 1e0:	6c6e                	flw	fs8,216(sp)
 1e2:	7364616f          	jal	sp,46918 <tohost+0x26910>
 1e6:	65706f2f          	0x65706f2f
 1ea:	746e                	flw	fs0,248(sp)
 1ec:	7469                	lui	s0,0xffffa
 1ee:	6e61                	lui	t3,0x18
 1f0:	665f 726f 2f6b      	0x2f6b726f665f
 1f6:	7768                	flw	fa0,108(a4)
 1f8:	2f70692f          	0x2f70692f
 1fc:	7369                	lui	t1,0xffffa
 1fe:	2f65                	jal	9b6 <_min_stack+0x1b6>
 200:	632f7773          	csrrci	a4,0x632,30
 204:	3065726f          	jal	tp,5750a <tohost+0x37502>
 208:	6c00                	flw	fs0,24(s0)
 20a:	20676e6f          	jal	t3,76410 <tohost+0x56408>
 20e:	6f6c                	flw	fa1,92(a4)
 210:	676e                	flw	fa4,216(sp)
 212:	7520                	flw	fs0,104(a0)
 214:	736e                	flw	ft6,248(sp)
 216:	6769                	lui	a4,0x1a
 218:	656e                	flw	fa0,216(sp)
 21a:	2064                	fld	fs1,192(s0)
 21c:	6e69                	lui	t3,0x1a
 21e:	0074                	addi	a3,sp,12
 220:	5f746567          	0x5f746567
 224:	746d                	lui	s0,0xffffb
 226:	6176                	flw	ft2,92(sp)
 228:	006c                	addi	a1,sp,12
 22a:	4c525443          	0x4c525443
 22e:	6300                	flw	fs0,0(a4)
 230:	7275                	lui	tp,0xffffd
 232:	6572                	flw	fa0,28(sp)
 234:	746e                	flw	fs0,248(sp)
 236:	745f 6d69 6865      	0x68656d69745f
 23c:	7400                	flw	fs0,40(s0)
 23e:	6d69                	lui	s10,0x1a
 240:	7265                	lui	tp,0xffff9
 242:	645f 7369 6261      	0x62617369645f
 248:	656c                	flw	fa1,76(a0)
 24a:	4900                	lw	s0,16(a0)
 24c:	4350                	lw	a2,4(a4)
 24e:	735f 7274 6375      	0x63757274735f
 254:	5f74                	lw	a3,124(a4)
 256:	0074                	addi	a3,sp,12
 258:	6974                	flw	fa3,84(a0)
 25a:	656d                	lui	a0,0x1b
 25c:	695f 636e 6572      	0x6572636e695f
 262:	656d                	lui	a0,0x1b
 264:	746e                	flw	fs0,248(sp)
 266:	6c00                	flw	fs0,24(s0)
 268:	20676e6f          	jal	t3,7646e <tohost+0x56466>
 26c:	6f6c                	flw	fa1,92(a4)
 26e:	676e                	flw	fa4,216(sp)
 270:	6920                	flw	fs0,80(a0)
 272:	746e                	flw	fs0,248(sp)
 274:	7400                	flw	fs0,40(s0)
 276:	6d69                	lui	s10,0x1a
 278:	5f65                	li	t5,-7
 27a:	6c65                	lui	s8,0x19
 27c:	7061                	c.lui	zero,0xffff8
 27e:	00646573          	csrrsi	a0,0x6,8
 282:	7069                	c.lui	zero,0xffffa
 284:	685f3063          	0x685f3063
 288:	6e61                	lui	t3,0x18
 28a:	6c64                	flw	fs1,92(s0)
 28c:	7265                	lui	tp,0xffff9
 28e:	4300                	lw	s0,0(a4)
 290:	00464e4f          	fnmadd.s	ft8,fa2,ft4,ft0,rmm
 294:	656e                	flw	fa0,216(sp)
 296:	69745f77          	0x69745f77
 29a:	656d                	lui	a0,0x1b
 29c:	7300                	flw	fs0,32(a4)
 29e:	6f68                	flw	fa0,92(a4)
 2a0:	7472                	flw	fs0,60(sp)
 2a2:	6920                	flw	fs0,80(a0)
 2a4:	746e                	flw	fs0,248(sp)
 2a6:	6900                	flw	fs0,16(a0)
 2a8:	6370                	flw	fa2,68(a4)
 2aa:	5f31                	li	t5,-20
 2ac:	7269                	lui	tp,0xffffa
 2ae:	5f71                	li	t5,-4
 2b0:	00746e63          	bltu	s0,t2,2cc <_min_stack-0x534>
 2b4:	5f746567          	0x5f746567
 2b8:	6c65                	lui	s8,0x19
 2ba:	7061                	c.lui	zero,0xffff8
 2bc:	5f646573          	csrrsi	a0,0x5f6,8
 2c0:	6974                	flw	fa3,84(a0)
 2c2:	656d                	lui	a0,0x1b
 2c4:	6300                	flw	fs0,0(a4)
 2c6:	7275                	lui	tp,0xffffd
 2c8:	645f 6769 7469      	0x74696769645f
 2ce:	7500                	flw	fs0,40(a0)
 2d0:	6e69                	lui	t3,0x1a
 2d2:	3374                	fld	fa3,224(a4)
 2d4:	5f32                	lw	t5,44(sp)
 2d6:	0074                	addi	a3,sp,12
 2d8:	7570                	flw	fa2,108(a0)
 2da:	7374                	flw	fa3,100(a4)
 2dc:	6700                	flw	fs0,8(a4)
 2de:	7465                	lui	s0,0xffff9
 2e0:	6d5f 7065 0063      	0x6370656d5f
 2e6:	6e69                	lui	t3,0x1a
 2e8:	6d657263          	bgeu	a0,s6,9ac <_min_stack+0x1ac>
 2ec:	6e65                	lui	t3,0x19
 2ee:	5f74                	lw	a3,124(a4)
 2f0:	6974                	flw	fa3,84(a0)
 2f2:	656d                	lui	a0,0x1b
 2f4:	00706d63          	bltu	zero,t2,30e <_min_stack-0x4f2>
 2f8:	706d6973          	csrrsi	s2,0x706,26
 2fc:	656c                	flw	fa1,76(a0)
 2fe:	745f 6d69 7265      	0x72656d69745f
 304:	685f 6e61 6c64      	0x6c646e61685f
 30a:	7265                	lui	tp,0xffff9
 30c:	4900                	lw	s0,16(a0)
 30e:	4350                	lw	a2,4(a4)
 310:	745f 7000 7475      	0x74757000745f
 316:	6568                	flw	fa0,76(a0)
 318:	0078                	addi	a4,sp,12
 31a:	645f 6f73 685f      	0x685f6f73645f
 320:	6e61                	lui	t3,0x18
 322:	6c64                	flw	fs1,92(s0)
 324:	0065                	c.nop	25
 326:	735f 7a69 0065      	0x657a69735f
 32c:	725f 6e61 3464      	0x34646e61725f
 332:	0038                	addi	a4,sp,8
 334:	655f 656d 6772      	0x6772656d655f
 33a:	6e65                	lui	t3,0x19
 33c:	5f007963          	bgeu	zero,a6,92e <_min_stack+0x12e>
 340:	6164                	flw	fs1,68(a0)
 342:	6174                	flw	fa3,68(a0)
 344:	5f00                	lw	s0,56(a4)
 346:	74726377          	0x74726377
 34a:	5f626d6f          	jal	s10,26940 <tohost+0x6938>
 34e:	74617473          	csrrci	s0,0x746,2
 352:	0065                	c.nop	25
 354:	775f 7363 7472      	0x74727363775f
 35a:	73626d6f          	jal	s10,26a90 <tohost+0x6a88>
 35e:	735f 6174 6574      	0x65746174735f
 364:	5f00                	lw	s0,56(a4)
 366:	626c                	flw	fa1,68(a2)
 368:	7366                	flw	ft6,120(sp)
 36a:	7a69                	lui	s4,0xffffa
 36c:	0065                	c.nop	25
 36e:	5f5f 6f6c 6163      	0x61636f6c5f5f
 374:	656c                	flw	fa1,76(a0)
 376:	745f 5f00 626d      	0x626d5f00745f
 37c:	7472                	flw	fs0,60(sp)
 37e:	5f63776f          	jal	a4,37974 <tohost+0x1796c>
 382:	74617473          	csrrci	s0,0x746,2
 386:	0065                	c.nop	25
 388:	775f 7463 6d6f      	0x6d6f7463775f
 38e:	5f62                	lw	t5,56(sp)
 390:	74617473          	csrrci	s0,0x746,2
 394:	0065                	c.nop	25
 396:	5f5f 6d74 735f      	0x735f6d745f5f
 39c:	6365                	lui	t1,0x19
 39e:	5f00                	lw	s0,56(a4)
 3a0:	6275                	lui	tp,0x1d
 3a2:	6675                	lui	a2,0x1d
 3a4:	5f00                	lw	s0,56(a4)
 3a6:	745f 5f6d 6f68      	0x6f685f6d745f
 3ac:	7275                	lui	tp,0xffffd
 3ae:	5f00                	lw	s0,56(a4)
 3b0:	735f 0066 6f5f      	0x6f5f0066735f
 3b6:	5f6e                	lw	t5,248(sp)
 3b8:	7865                	lui	a6,0xffff9
 3ba:	7469                	lui	s0,0xffffa
 3bc:	615f 6772 0073      	0x736772615f
 3c2:	635f 6f6f 696b      	0x696b6f6f635f
 3c8:	0065                	c.nop	25
 3ca:	5f5f 6773 756c      	0x756c67735f5f
 3d0:	0065                	c.nop	25
 3d2:	665f 616c 7367      	0x7367616c665f
 3d8:	5f00                	lw	s0,56(a4)
 3da:	7369                	lui	t1,0xffffa
 3dc:	635f 6178 5f00      	0x5f006178635f
 3e2:	69647473          	csrrci	s0,0x696,8
 3e6:	006e                	c.slli	zero,0x1b
 3e8:	625f 6b6c 6973      	0x69736b6c625f
 3ee:	657a                	flw	fa0,156(sp)
 3f0:	7000                	flw	fs0,32(s0)
 3f2:	6972                	flw	fs2,28(sp)
 3f4:	746e                	flw	fs0,248(sp)
 3f6:	695f 706d 006c      	0x6c706d695f
 3fc:	635f 7476 7562      	0x75627476635f
 402:	0066                	c.slli	zero,0x19
 404:	6f5f 6666 6573      	0x657366666f5f
 40a:	0074                	addi	a3,sp,12
 40c:	6d5f 7362 7472      	0x747273626d5f
 412:	7363776f          	jal	a4,37b48 <tohost+0x17b40>
 416:	735f 6174 6574      	0x65746174735f
 41c:	5f00                	lw	s0,56(a4)
 41e:	626d                	lui	tp,0x1b
 420:	6c72                	flw	fs8,28(sp)
 422:	6e65                	lui	t3,0x19
 424:	735f 6174 6574      	0x65746174735f
 42a:	5f00                	lw	s0,56(a4)
 42c:	6e66                	flw	ft8,88(sp)
 42e:	7261                	lui	tp,0xffff8
 430:	6c007367          	0x6c007367
 434:	20676e6f          	jal	t3,7663a <tohost+0x56632>
 438:	6f64                	flw	fs1,92(a4)
 43a:	6275                	lui	tp,0x1d
 43c:	656c                	flw	fa1,76(a0)
 43e:	5f00                	lw	s0,56(a4)
 440:	6e66                	flw	ft8,88(sp)
 442:	735f0073          	0x735f0073
 446:	6769                	lui	a4,0x1a
 448:	006e                	c.slli	zero,0x1b
 44a:	665f 6f6c 6b63      	0x6b636f6c665f
 450:	745f 5f00 7473      	0x74735f00745f
 456:	6564                	flw	fs1,76(a0)
 458:	7272                	flw	ft4,60(sp)
 45a:	5f00                	lw	s0,56(a4)
 45c:	6942                	flw	fs2,16(sp)
 45e:	746e6967          	0x746e6967
 462:	5f00                	lw	s0,56(a4)
 464:	6d6d6167          	0x6d6d6167
 468:	5f61                	li	t5,-8
 46a:	6e676973          	csrrsi	s2,0x6e6,14
 46e:	006d6167          	0x6d6167
 472:	725f 7365 6c75      	0x6c757365725f
 478:	5f74                	lw	a3,124(a4)
 47a:	5f5f006b          	0x5f5f006b
 47e:	6d74                	flw	fa3,92(a0)
 480:	5f00                	lw	s0,56(a4)
 482:	775f 6863 0062      	0x626863775f
 488:	735f 6474 756f      	0x756f6474735f
 48e:	0074                	addi	a3,sp,12
 490:	635f 7476 656c      	0x656c7476635f
 496:	006e                	c.slli	zero,0x1b
 498:	665f 6c69 0065      	0x656c69665f
 49e:	6e5f 6f69 7362      	0x73626f696e5f
 4a4:	5f00                	lw	s0,56(a4)
 4a6:	7461                	lui	s0,0xffff8
 4a8:	7865                	lui	a6,0xffff9
 4aa:	7469                	lui	s0,0xffffa
 4ac:	0030                	addi	a2,sp,8
 4ae:	735f 6769 616e      	0x616e6769735f
 4b4:	5f6c                	lw	a1,124(a4)
 4b6:	7562                	flw	fa0,56(sp)
 4b8:	0066                	c.slli	zero,0x19
 4ba:	615f 6373 6974      	0x69746373615f
 4c0:	656d                	lui	a0,0x1b
 4c2:	625f 6675 5f00      	0x5f006675625f
 4c8:	6572                	flw	fa0,28(sp)
 4ca:	746c7573          	csrrci	a0,0x746,24
 4ce:	5f00                	lw	s0,56(a4)
 4d0:	775f 6863 7700      	0x77006863775f
 4d6:	6e69                	lui	t3,0x1a
 4d8:	5f74                	lw	a3,124(a4)
 4da:	0074                	addi	a3,sp,12
 4dc:	6c5f 636f 006b      	0x6b636f6c5f
 4e2:	665f 616c 7367      	0x7367616c665f
 4e8:	0032                	c.slli	zero,0xc
 4ea:	775f 6972 6574      	0x65746972775f
 4f0:	5f00                	lw	s0,56(a4)
 4f2:	745f 5f6d 6579      	0x65795f6d745f
 4f8:	7261                	lui	tp,0xffff8
 4fa:	5f00                	lw	s0,56(a4)
 4fc:	6d6e                	flw	fs10,216(sp)
 4fe:	6c61                	lui	s8,0x18
 500:	6f6c                	flw	fa1,92(a4)
 502:	6e5f0063          	beq	t5,t0,be2 <_min_stack+0x3e2>
 506:	7865                	lui	a6,0xffff9
 508:	6674                	flw	fa3,76(a2)
 50a:	5f00                	lw	s0,56(a4)
 50c:	745f 5f6d 6f6d      	0x6f6d5f6d745f
 512:	006e                	c.slli	zero,0x1b
 514:	615f 6574 6978      	0x69786574615f
 51a:	0074                	addi	a3,sp,12
 51c:	5f5f 6473 6469      	0x646964735f5f
 522:	6e69                	lui	t3,0x1a
 524:	7469                	lui	s0,0xffffa
 526:	5f00                	lw	s0,56(a4)
 528:	5f66666f          	jal	a2,66b1e <tohost+0x46b16>
 52c:	0074                	addi	a3,sp,12
 52e:	665f 6572 6c65      	0x6c656572665f
 534:	7369                	lui	t1,0xffffa
 536:	0074                	addi	a3,sp,12
 538:	4c5f 434f 5f4b      	0x5f4b434f4c5f
 53e:	4552                	lw	a0,20(sp)
 540:	53525543          	fmadd.d	fa0,ft4,fs5,fa0,unknown
 544:	5649                	li	a2,-14
 546:	5f45                	li	t5,-15
 548:	0054                	addi	a3,sp,4
 54a:	6e5f 7765 5f00      	0x5f0077656e5f
 550:	5f68                	lw	a0,124(a4)
 552:	7265                	lui	tp,0xffff9
 554:	6e72                	flw	ft8,28(sp)
 556:	5f5f006f          	j	f134a <tohost+0xd1342>
 55a:	6d74                	flw	fa3,92(a0)
 55c:	795f 6164 0079      	0x796164795f
 562:	5f5f 6273 6675      	0x667562735f5f
 568:	5f00                	lw	s0,56(a4)
 56a:	6f69                	lui	t5,0x1a
 56c:	7362                	flw	ft6,56(sp)
 56e:	5f00                	lw	s0,56(a4)
 570:	465f 4c49 0045      	0x454c49465f
 576:	6d5f 7362 6174      	0x617473626d5f
 57c:	6574                	flw	fa3,76(a0)
 57e:	745f 5f00 735f      	0x735f5f00745f
 584:	4946                	lw	s2,80(sp)
 586:	454c                	lw	a1,12(a0)
 588:	5f00                	lw	s0,56(a4)
 58a:	626d                	lui	tp,0x1b
 58c:	74617473          	csrrci	s0,0x746,2
 590:	0065                	c.nop	25
 592:	725f 6e61 5f64      	0x5f646e61725f
 598:	656e                	flw	fa0,216(sp)
 59a:	7478                	flw	fa4,108(s0)
 59c:	5f00                	lw	s0,56(a4)
 59e:	626d                	lui	tp,0x1b
 5a0:	656c                	flw	fa1,76(a0)
 5a2:	5f6e                	lw	t5,248(sp)
 5a4:	74617473          	csrrci	s0,0x746,2
 5a8:	0065                	c.nop	25
 5aa:	695f 636e 5f00      	0x5f00636e695f
 5b0:	6e69                	lui	t3,0x1a
 5b2:	0064                	addi	s1,sp,12
 5b4:	6c5f 636f 6c61      	0x6c61636f6c5f
 5ba:	0065                	c.nop	25
 5bc:	5f5f 6c63 6165      	0x61656c635f5f
 5c2:	756e                	flw	fa0,248(sp)
 5c4:	0070                	addi	a2,sp,12
 5c6:	755f 736e 6570      	0x6570736e755f
 5cc:	69666963          	bltu	a2,s6,c5e <_min_stack+0x45e>
 5d0:	6465                	lui	s0,0x19
 5d2:	6c5f 636f 6c61      	0x6c61636f6c5f
 5d8:	5f65                	li	t5,-7
 5da:	6e69                	lui	t3,0x1a
 5dc:	6f66                	flw	ft10,88(sp)
 5de:	5f00                	lw	s0,56(a4)
 5e0:	616d                	addi	sp,sp,240
 5e2:	7778                	flw	fa4,108(a4)
 5e4:	7364                	flw	fs1,100(a4)
 5e6:	5f00                	lw	s0,56(a4)
 5e8:	6572                	flw	fa0,28(sp)
 5ea:	6e65                	lui	t3,0x19
 5ec:	0074                	addi	a3,sp,12
 5ee:	735f 6565 0064      	0x646565735f
 5f4:	5f5f 6f63 6e75      	0x6e756f635f5f
 5fa:	0074                	addi	a3,sp,12
 5fc:	735f 6565 006b      	0x6b6565735f
 602:	665f 6f70 5f73      	0x5f736f70665f
 608:	0074                	addi	a3,sp,12
 60a:	5f5f 6d74 6d5f      	0x6d5f6d745f5f
 610:	6e69                	lui	t3,0x1a
 612:	5f00                	lw	s0,56(a4)
 614:	756d                	lui	a0,0xffffb
 616:	746c                	flw	fa1,108(s0)
 618:	5f00                	lw	s0,56(a4)
 61a:	74727473          	csrrci	s0,0x747,4
 61e:	6c5f6b6f          	jal	s6,f74e2 <tohost+0xd74da>
 622:	7361                	lui	t1,0xffff8
 624:	0074                	addi	a3,sp,12
 626:	5f5f 6176 756c      	0x756c61765f5f
 62c:	0065                	c.nop	25
 62e:	665f 746e 7079      	0x7079746e665f
 634:	7365                	lui	t1,0xffff9
 636:	5f00                	lw	s0,56(a4)
 638:	6461                	lui	s0,0x18
 63a:	0064                	addi	s1,sp,12
 63c:	5f5f 4c55 6e6f      	0x6e6f4c555f5f
 642:	675f0067          	jr	1653(t5) # 1a675 <_stack_len+0x19675>
 646:	7465                	lui	s0,0xffff9
 648:	6164                	flw	fs1,68(a0)
 64a:	6574                	flw	fa3,76(a0)
 64c:	655f 7272 5f00      	0x5f007272655f
 652:	626f6c67          	0x626f6c67
 656:	6c61                	lui	s8,0x18
 658:	695f 706d 7275      	0x7275706d695f
 65e:	5f65                	li	t5,-7
 660:	7470                	flw	fa2,108(s0)
 662:	0072                	c.slli	zero,0x1c
 664:	7261                	lui	tp,0xffff8
 666:	5f007667          	0x5f007667
 66a:	6e75                	lui	t3,0x1d
 66c:	7375                	lui	t1,0xffffd
 66e:	6465                	lui	s0,0x19
 670:	725f 6e61 0064      	0x646e61725f
 676:	775f 7364 5f00      	0x5f007364775f
 67c:	745f 5f6d 6477      	0x64775f6d745f
 682:	7961                	lui	s2,0xffff8
 684:	5f00                	lw	s0,56(a4)
 686:	65756c67          	0x65756c67
 68a:	5f00                	lw	s0,56(a4)
 68c:	7a697373          	csrrci	t1,0x7a6,18
 690:	5f65                	li	t5,-7
 692:	0074                	addi	a3,sp,12
 694:	6c5f 3436 5f61      	0x5f6134366c5f
 69a:	7562                	flw	fa0,56(sp)
 69c:	0066                	c.slli	zero,0x19
 69e:	65726f63          	bltu	tp,s7,cfc <_min_stack+0x4fc>
 6a2:	5f30                	lw	a2,120(a4)
 6a4:	616d                	addi	sp,sp,240
 6a6:	6e69                	lui	t3,0x1a
 6a8:	632e                	flw	ft6,200(sp)
 6aa:	5f00                	lw	s0,56(a4)
 6ac:	5f676973          	csrrsi	s2,0x5f6,14
 6b0:	7566                	flw	fa0,120(sp)
 6b2:	636e                	flw	ft6,216(sp)
 6b4:	5f00                	lw	s0,56(a4)
 6b6:	626e                	flw	ft4,216(sp)
 6b8:	6675                	lui	a2,0x1d
 6ba:	5f00                	lw	s0,56(a4)
 6bc:	6e75                	lui	t3,0x1d
 6be:	7375                	lui	t1,0xffffd
 6c0:	6465                	lui	s0,0x19
 6c2:	6100                	flw	fs0,0(a0)
 6c4:	6772                	flw	fa4,28(sp)
 6c6:	5f5f0063          	beq	t5,s5,ca6 <_min_stack+0x4a6>
 6ca:	6d74                	flw	fa3,92(a0)
 6cc:	695f 6473 7473      	0x74736473695f
 6d2:	5f00                	lw	s0,56(a4)
 6d4:	6f6c                	flw	fa1,92(a4)
 6d6:	746c6163          	bltu	s8,t1,e18 <_min_stack+0x618>
 6da:	6d69                	lui	s10,0x1a
 6dc:	5f65                	li	t5,-7
 6de:	7562                	flw	fa0,56(sp)
 6e0:	0066                	c.slli	zero,0x19
 6e2:	635f 6f6c 6573      	0x65736f6c635f
 6e8:	5f00                	lw	s0,56(a4)
 6ea:	3472                	fld	fs0,312(sp)
 6ec:	0038                	addi	a4,sp,8
 6ee:	6d5f 7462 776f      	0x776f74626d5f
 6f4:	74735f63          	bge	t1,t2,e52 <_min_stack+0x652>
 6f8:	7461                	lui	s0,0xffff8
 6fa:	0065                	c.nop	25
 6fc:	705f 7335 6d00      	0x6d007335705f
 702:	6961                	lui	s2,0x18
 704:	006e                	c.slli	zero,0x1b
 706:	5f5f 6d74 6d5f      	0x6d5f6d745f5f
 70c:	6164                	flw	fs1,68(a0)
 70e:	0079                	c.nop	30
 710:	6d6f682f          	0x6d6f682f
 714:	2f65                	jal	ecc <_min_stack+0x6cc>
 716:	7375                	lui	t1,0xffffd
 718:	7265                	lui	tp,0xffff9
 71a:	776f442f          	0x776f442f
 71e:	6c6e                	flw	fs8,216(sp)
 720:	7364616f          	jal	sp,46e56 <tohost+0x26e4e>
 724:	65706f2f          	0x65706f2f
 728:	746e                	flw	fs0,248(sp)
 72a:	7469                	lui	s0,0xffffa
 72c:	6e61                	lui	t3,0x18
 72e:	665f 726f 2f6b      	0x2f6b726f665f
 734:	7768                	flw	fa0,108(a4)
 736:	2f70692f          	0x2f70692f
 73a:	7369                	lui	t1,0xffffa
 73c:	2f65                	jal	ef4 <_min_stack+0x6f4>
 73e:	632f7773          	csrrci	a4,0x632,30
 742:	6f6d6d6f          	jal	s10,d6e38 <tohost+0xb6e30>
 746:	2f6e                	fld	ft10,216(sp)
 748:	30747263          	bgeu	s0,t2,a4c <_min_stack+0x24c>
 74c:	532e                	lw	t1,232(sp)
 74e:	4700                	lw	s0,8(a4)
 750:	554e                	lw	a0,240(sp)
 752:	4120                	lw	s0,64(a0)
 754:	2e322053          	0x2e322053
 758:	          	snez	tp,zero

Disassembly of section .comment:

00000000 <.comment>:
   0:	3a434347          	fmsub.d	ft6,ft6,ft4,ft7,rmm
   4:	2820                	fld	fs0,80(s0)
   6:	736f7263          	bgeu	t5,s6,72a <_min_stack-0xd6>
   a:	6f6f7473          	csrrci	s0,0x6f6,30
   e:	2d6c                	fld	fa1,216(a0)
  10:	474e                	lw	a4,208(sp)
  12:	3120                	fld	fs0,96(a0)
  14:	322e                	fld	ft4,232(sp)
  16:	2e34                	fld	fa3,88(a2)
  18:	2e30                	fld	fa2,88(a2)
  1a:	3134                	fld	fa3,96(a0)
  1c:	342d                	jal	fffffa46 <fromhost+0xefffda36>
  1e:	37643537          	lui	a0,0x37643
  22:	6632                	flw	fa2,12(sp)
  24:	2029                	jal	2e <_min_stack-0x7d2>
  26:	2e39                	jal	344 <_min_stack-0x4bc>
  28:	2e32                	fld	ft8,264(sp)
  2a:	0030                	addi	a2,sp,8

Disassembly of section .riscv.attributes:

00000000 <.riscv.attributes>:
   0:	2041                	jal	80 <_min_stack-0x780>
   2:	0000                	unimp
   4:	7200                	flw	fs0,32(a2)
   6:	7369                	lui	t1,0xffffa
   8:	01007663          	bgeu	zero,a6,14 <_min_stack-0x7ec>
   c:	0016                	c.slli	zero,0x5
   e:	0000                	unimp
  10:	1004                	addi	s1,sp,32
  12:	7205                	lui	tp,0xfffe1
  14:	3376                	fld	ft6,376(sp)
  16:	6932                	flw	fs2,12(sp)
  18:	7032                	flw	ft0,44(sp)
  1a:	5f30                	lw	a2,120(a4)
  1c:	326d                	jal	fffff9c6 <fromhost+0xefffd9b6>
  1e:	3070                	fld	fa2,224(s0)
	...

Disassembly of section .debug_frame:

00000000 <.debug_frame>:
   0:	000c                	0xc
   2:	0000                	unimp
   4:	ffff                	0xffff
   6:	ffff                	0xffff
   8:	0001                	nop
   a:	7c01                	lui	s8,0xfffe0
   c:	0d01                	addi	s10,s10,0
   e:	0002                	c.slli64	zero
  10:	000c                	0xc
  12:	0000                	unimp
  14:	0000                	unimp
  16:	0000                	unimp
  18:	0084                	addi	s1,sp,64
  1a:	1000                	addi	s0,sp,32
  1c:	0010                	0x10
  1e:	0000                	unimp
  20:	000c                	0xc
  22:	0000                	unimp
  24:	0000                	unimp
  26:	0000                	unimp
  28:	0094                	addi	a3,sp,64
  2a:	1000                	addi	s0,sp,32
  2c:	0020                	addi	s0,sp,8
  2e:	0000                	unimp
  30:	000c                	0xc
  32:	0000                	unimp
  34:	0000                	unimp
  36:	0000                	unimp
  38:	00b4                	addi	a3,sp,72
  3a:	1000                	addi	s0,sp,32
  3c:	0034                	addi	a3,sp,8
  3e:	0000                	unimp
  40:	000c                	0xc
  42:	0000                	unimp
  44:	0000                	unimp
  46:	0000                	unimp
  48:	00e8                	addi	a0,sp,76
  4a:	1000                	addi	s0,sp,32
  4c:	0010                	0x10
  4e:	0000                	unimp
  50:	000c                	0xc
  52:	0000                	unimp
  54:	0000                	unimp
  56:	0000                	unimp
  58:	00f8                	addi	a4,sp,76
  5a:	1000                	addi	s0,sp,32
  5c:	00fc                	addi	a5,sp,76
  5e:	0000                	unimp
  60:	000c                	0xc
  62:	0000                	unimp
  64:	0000                	unimp
  66:	0000                	unimp
  68:	01f4                	addi	a3,sp,204
  6a:	1000                	addi	s0,sp,32
  6c:	0010                	0x10
  6e:	0000                	unimp
  70:	000c                	0xc
  72:	0000                	unimp
  74:	0000                	unimp
  76:	0000                	unimp
  78:	0204                	addi	s1,sp,256
  7a:	1000                	addi	s0,sp,32
  7c:	0008                	0x8
  7e:	0000                	unimp
  80:	000c                	0xc
  82:	0000                	unimp
  84:	0000                	unimp
  86:	0000                	unimp
  88:	020c                	addi	a1,sp,256
  8a:	1000                	addi	s0,sp,32
  8c:	0008                	0x8
  8e:	0000                	unimp
  90:	000c                	0xc
  92:	0000                	unimp
  94:	0000                	unimp
  96:	0000                	unimp
  98:	0214                	addi	a3,sp,256
  9a:	1000                	addi	s0,sp,32
  9c:	0008                	0x8
  9e:	0000                	unimp
  a0:	0014                	0x14
  a2:	0000                	unimp
  a4:	0000                	unimp
  a6:	0000                	unimp
  a8:	021c                	addi	a5,sp,256
  aa:	1000                	addi	s0,sp,32
  ac:	0074                	addi	a3,sp,12
  ae:	0000                	unimp
  b0:	0e44                	addi	s1,sp,788
  b2:	4c10                	lw	a2,24(s0)
  b4:	0181                	addi	gp,gp,0
  b6:	0000                	unimp
  b8:	000c                	0xc
  ba:	0000                	unimp
  bc:	0000                	unimp
  be:	0000                	unimp
  c0:	0290                	addi	a2,sp,320
  c2:	1000                	addi	s0,sp,32
  c4:	000c                	0xc
  c6:	0000                	unimp
  c8:	000c                	0xc
  ca:	0000                	unimp
  cc:	0000                	unimp
  ce:	0000                	unimp
  d0:	029c                	addi	a5,sp,320
  d2:	1000                	addi	s0,sp,32
  d4:	0018                	0x18
  d6:	0000                	unimp
  d8:	000c                	0xc
  da:	0000                	unimp
  dc:	0000                	unimp
  de:	0000                	unimp
  e0:	02b4                	addi	a3,sp,328
  e2:	1000                	addi	s0,sp,32
  e4:	0018                	0x18
  e6:	0000                	unimp
  e8:	0020                	addi	s0,sp,8
  ea:	0000                	unimp
  ec:	0000                	unimp
  ee:	0000                	unimp
  f0:	02cc                	addi	a1,sp,324
  f2:	1000                	addi	s0,sp,32
  f4:	007c                	addi	a5,sp,12
  f6:	0000                	unimp
  f8:	0e44                	addi	s1,sp,788
  fa:	4c10                	lw	a2,24(s0)
  fc:	0181                	addi	gp,gp,0
  fe:	0288                	addi	a0,sp,320
 100:	0389                	addi	t2,t2,2
 102:	5c02                	lw	s8,32(sp)
 104:	44c1                	li	s1,16
 106:	44c8                	lw	a0,12(s1)
 108:	44c9                	li	s1,18
 10a:	000e                	c.slli	zero,0x3
 10c:	000c                	0xc
 10e:	0000                	unimp
 110:	0000                	unimp
 112:	0000                	unimp
 114:	0348                	addi	a0,sp,388
 116:	1000                	addi	s0,sp,32
 118:	0014                	0x14
 11a:	0000                	unimp
 11c:	0060                	addi	s0,sp,12
 11e:	0000                	unimp
 120:	0000                	unimp
 122:	0000                	unimp
 124:	035c                	addi	a5,sp,388
 126:	1000                	addi	s0,sp,32
 128:	00e8                	addi	a0,sp,76
 12a:	0000                	unimp
 12c:	0e44                	addi	s1,sp,788
 12e:	4450                	lw	a2,12(s0)
 130:	884c0c8f          	0x884c0c8f
 134:	4805                	li	a6,1
 136:	0689                	addi	a3,a3,2
 138:	4002                	0x4002
 13a:	098c                	addi	a1,sp,208
 13c:	0d90                	addi	a2,sp,720
 13e:	0e91                	addi	t4,t4,4
 140:	0181                	addi	gp,gp,0
 142:	0285                	addi	t0,t0,1
 144:	0386                	slli	t2,t2,0x1
 146:	0a8d0487          	0xa8d0487
 14a:	0b8e                	slli	s7,s7,0x3
 14c:	0f9c                	addi	a5,sp,976
 14e:	109d                	addi	ra,ra,-25
 150:	119e                	slli	gp,gp,0x27
 152:	129f 078a 088b      	0x88b078a129f
 158:	c86c                	sw	a1,84(s0)
 15a:	c158                	sw	a4,4(a0)
 15c:	c544                	sw	s1,12(a0)
 15e:	c644                	sw	s1,12(a2)
 160:	c744                	sw	s1,12(a4)
 162:	c944                	sw	s1,20(a0)
 164:	ca44                	sw	s1,20(a2)
 166:	cb44                	sw	s1,20(a4)
 168:	cc44                	sw	s1,28(s0)
 16a:	cd44                	sw	s1,28(a0)
 16c:	ce44                	sw	s1,28(a2)
 16e:	cf44                	sw	s1,28(a4)
 170:	d044                	sw	s1,36(s0)
 172:	d144                	sw	s1,36(a0)
 174:	dc44                	sw	s1,60(s0)
 176:	dd44                	sw	s1,60(a0)
 178:	de44                	sw	s1,60(a2)
 17a:	df44                	sw	s1,60(a4)
 17c:	0e44                	addi	s1,sp,788
 17e:	0000                	unimp
 180:	0058                	addi	a4,sp,4
 182:	0000                	unimp
 184:	0000                	unimp
 186:	0000                	unimp
 188:	0444                	addi	s1,sp,516
 18a:	1000                	addi	s0,sp,32
 18c:	00c4                	addi	s1,sp,68
 18e:	0000                	unimp
 190:	0e44                	addi	s1,sp,788
 192:	4440                	lw	s0,12(s0)
 194:	904c068b          	0x904c068b
 198:	0c91480b          	0xc91480b
 19c:	8a48                	0x8a48
 19e:	7405                	lui	s0,0xfffe1
 1a0:	078c                	addi	a1,sp,960
 1a2:	01810a8f          	0x1810a8f
 1a6:	0285                	addi	t0,t0,1
 1a8:	0386                	slli	t2,t2,0x1
 1aa:	088d0487          	0x88d0487
 1ae:	098e                	slli	s3,s3,0x3
 1b0:	0d9c                	addi	a5,sp,720
 1b2:	0e9d                	addi	t4,t4,7
 1b4:	0f9e                	slli	t6,t6,0x7
 1b6:	109f c168 c544      	0xc544c168109f
 1bc:	c644                	sw	s1,12(a2)
 1be:	c744                	sw	s1,12(a4)
 1c0:	ca44                	sw	s1,20(a2)
 1c2:	cb44                	sw	s1,20(a4)
 1c4:	cc44                	sw	s1,28(s0)
 1c6:	cd44                	sw	s1,28(a0)
 1c8:	ce44                	sw	s1,28(a2)
 1ca:	cf44                	sw	s1,28(a4)
 1cc:	d044                	sw	s1,36(s0)
 1ce:	d144                	sw	s1,36(a0)
 1d0:	dc44                	sw	s1,60(s0)
 1d2:	dd44                	sw	s1,60(a0)
 1d4:	de44                	sw	s1,60(a2)
 1d6:	df44                	sw	s1,60(a4)
 1d8:	0e44                	addi	s1,sp,788
 1da:	0000                	unimp
 1dc:	0058                	addi	a4,sp,4
 1de:	0000                	unimp
 1e0:	0000                	unimp
 1e2:	0000                	unimp
 1e4:	0508                	addi	a0,sp,640
 1e6:	1000                	addi	s0,sp,32
 1e8:	00c4                	addi	s1,sp,68
 1ea:	0000                	unimp
 1ec:	0e44                	addi	s1,sp,788
 1ee:	4440                	lw	s0,12(s0)
 1f0:	904c068b          	0x904c068b
 1f4:	0c91480b          	0xc91480b
 1f8:	8a48                	0x8a48
 1fa:	7405                	lui	s0,0xfffe1
 1fc:	078c                	addi	a1,sp,960
 1fe:	01810a8f          	0x1810a8f
 202:	0285                	addi	t0,t0,1
 204:	0386                	slli	t2,t2,0x1
 206:	088d0487          	0x88d0487
 20a:	098e                	slli	s3,s3,0x3
 20c:	0d9c                	addi	a5,sp,720
 20e:	0e9d                	addi	t4,t4,7
 210:	0f9e                	slli	t6,t6,0x7
 212:	109f c168 c544      	0xc544c168109f
 218:	c644                	sw	s1,12(a2)
 21a:	c744                	sw	s1,12(a4)
 21c:	ca44                	sw	s1,20(a2)
 21e:	cb44                	sw	s1,20(a4)
 220:	cc44                	sw	s1,28(s0)
 222:	cd44                	sw	s1,28(a0)
 224:	ce44                	sw	s1,28(a2)
 226:	cf44                	sw	s1,28(a4)
 228:	d044                	sw	s1,36(s0)
 22a:	d144                	sw	s1,36(a0)
 22c:	dc44                	sw	s1,60(s0)
 22e:	dd44                	sw	s1,60(a0)
 230:	de44                	sw	s1,60(a2)
 232:	df44                	sw	s1,60(a4)
 234:	0e44                	addi	s1,sp,788
 236:	0000                	unimp
 238:	000c                	0xc
 23a:	0000                	unimp
 23c:	ffff                	0xffff
 23e:	ffff                	0xffff
 240:	0001                	nop
 242:	7c01                	lui	s8,0xfffe0
 244:	0d01                	addi	s10,s10,0
 246:	0002                	c.slli64	zero
 248:	000c                	0xc
 24a:	0000                	unimp
 24c:	0238                	addi	a4,sp,264
 24e:	0000                	unimp
 250:	05cc                	addi	a1,sp,708
 252:	1000                	addi	s0,sp,32
 254:	0004                	0x4
 256:	0000                	unimp
 258:	000c                	0xc
 25a:	0000                	unimp
 25c:	0238                	addi	a4,sp,264
 25e:	0000                	unimp
 260:	06a8                	addi	a0,sp,840
 262:	1000                	addi	s0,sp,32
 264:	0020                	addi	s0,sp,8
	...
